Archive member included to satisfy reference by file (symbol)

c:/nxp/mcuxpressoide_11.0.0_2516/ide/plugins/com.nxp.mcuxpresso.tools.win32_11.0.0.201905131304/tools/bin/../lib/gcc/arm-none-eabi/8.2.1/../../../../arm-none-eabi/lib/thumb/v7e-m+fp/hard\libcr_semihost_nf.a(_cr__main.o)
                              ./startup/startup_mk66f18.o (__main)
c:/nxp/mcuxpressoide_11.0.0_2516/ide/plugins/com.nxp.mcuxpresso.tools.win32_11.0.0.201905131304/tools/bin/../lib/gcc/arm-none-eabi/8.2.1/../../../../arm-none-eabi/lib/thumb/v7e-m+fp/hard\libcr_semihost_nf.a(_cr_assert.o)
                              ./utilities/fsl_debug_console.o (__assertion_failed)
c:/nxp/mcuxpressoide_11.0.0_2516/ide/plugins/com.nxp.mcuxpresso.tools.win32_11.0.0.201905131304/tools/bin/../lib/gcc/arm-none-eabi/8.2.1/../../../../arm-none-eabi/lib/thumb/v7e-m+fp/hard\libcr_semihost_nf.a(__ciob.o)
                              c:/nxp/mcuxpressoide_11.0.0_2516/ide/plugins/com.nxp.mcuxpresso.tools.win32_11.0.0.201905131304/tools/bin/../lib/gcc/arm-none-eabi/8.2.1/../../../../arm-none-eabi/lib/thumb/v7e-m+fp/hard\libcr_semihost_nf.a(_cr_assert.o) (__Ciob)
c:/nxp/mcuxpressoide_11.0.0_2516/ide/plugins/com.nxp.mcuxpresso.tools.win32_11.0.0.201905131304/tools/bin/../lib/gcc/arm-none-eabi/8.2.1/../../../../arm-none-eabi/lib/thumb/v7e-m+fp/hard\libcr_semihost_nf.a(__sys_appexit.o)
                              c:/nxp/mcuxpressoide_11.0.0_2516/ide/plugins/com.nxp.mcuxpresso.tools.win32_11.0.0.201905131304/tools/bin/../lib/gcc/arm-none-eabi/8.2.1/../../../../arm-none-eabi/lib/thumb/v7e-m+fp/hard\libcr_semihost_nf.a(_cr_assert.o) (__sys_appexit)
c:/nxp/mcuxpressoide_11.0.0_2516/ide/plugins/com.nxp.mcuxpresso.tools.win32_11.0.0.201905131304/tools/bin/../lib/gcc/arm-none-eabi/8.2.1/../../../../arm-none-eabi/lib/thumb/v7e-m+fp/hard\libcr_c.a(memset.o)
                              ./utilities/fsl_debug_console.o (memset)
c:/nxp/mcuxpressoide_11.0.0_2516/ide/plugins/com.nxp.mcuxpresso.tools.win32_11.0.0.201905131304/tools/bin/../lib/gcc/arm-none-eabi/8.2.1/../../../../arm-none-eabi/lib/thumb/v7e-m+fp/hard\libcr_c.a(_deferredlazyseek.o)
                              c:/nxp/mcuxpressoide_11.0.0_2516/ide/plugins/com.nxp.mcuxpresso.tools.win32_11.0.0.201905131304/tools/bin/../lib/gcc/arm-none-eabi/8.2.1/../../../../arm-none-eabi/lib/thumb/v7e-m+fp/hard\libcr_semihost_nf.a(_cr_assert.o) (__flsbuf)
c:/nxp/mcuxpressoide_11.0.0_2516/ide/plugins/com.nxp.mcuxpresso.tools.win32_11.0.0.201905131304/tools/bin/../lib/gcc/arm-none-eabi/8.2.1/../../../../arm-none-eabi/lib/thumb/v7e-m+fp/hard\libcr_c.a(_fflush.o)
                              c:/nxp/mcuxpressoide_11.0.0_2516/ide/plugins/com.nxp.mcuxpresso.tools.win32_11.0.0.201905131304/tools/bin/../lib/gcc/arm-none-eabi/8.2.1/../../../../arm-none-eabi/lib/thumb/v7e-m+fp/hard\libcr_c.a(_deferredlazyseek.o) (_fflush)
c:/nxp/mcuxpressoide_11.0.0_2516/ide/plugins/com.nxp.mcuxpresso.tools.win32_11.0.0.201905131304/tools/bin/../lib/gcc/arm-none-eabi/8.2.1/../../../../arm-none-eabi/lib/thumb/v7e-m+fp/hard\libcr_c.a(_writebuf.o)
                              c:/nxp/mcuxpressoide_11.0.0_2516/ide/plugins/com.nxp.mcuxpresso.tools.win32_11.0.0.201905131304/tools/bin/../lib/gcc/arm-none-eabi/8.2.1/../../../../arm-none-eabi/lib/thumb/v7e-m+fp/hard\libcr_c.a(_deferredlazyseek.o) (_Cwritebuf)
c:/nxp/mcuxpressoide_11.0.0_2516/ide/plugins/com.nxp.mcuxpresso.tools.win32_11.0.0.201905131304/tools/bin/../lib/gcc/arm-none-eabi/8.2.1/../../../../arm-none-eabi/lib/thumb/v7e-m+fp/hard\libcr_c.a(alloc.o)
                              ./drivers/fsl_common.o (malloc)
c:/nxp/mcuxpressoide_11.0.0_2516/ide/plugins/com.nxp.mcuxpresso.tools.win32_11.0.0.201905131304/tools/bin/../lib/gcc/arm-none-eabi/8.2.1/../../../../arm-none-eabi/lib/thumb/v7e-m+fp/hard\libcr_c.a(floor.o)
                              ./source/MK66FN2M0xxx18_Accelerometer2.o (floor)
c:/nxp/mcuxpressoide_11.0.0_2516/ide/plugins/com.nxp.mcuxpresso.tools.win32_11.0.0.201905131304/tools/bin/../lib/gcc/arm-none-eabi/8.2.1/../../../../arm-none-eabi/lib/thumb/v7e-m+fp/hard\libcr_c.a(fputs.o)
                              c:/nxp/mcuxpressoide_11.0.0_2516/ide/plugins/com.nxp.mcuxpresso.tools.win32_11.0.0.201905131304/tools/bin/../lib/gcc/arm-none-eabi/8.2.1/../../../../arm-none-eabi/lib/thumb/v7e-m+fp/hard\libcr_semihost_nf.a(_cr_assert.o) (fputs)
c:/nxp/mcuxpressoide_11.0.0_2516/ide/plugins/com.nxp.mcuxpresso.tools.win32_11.0.0.201905131304/tools/bin/../lib/gcc/arm-none-eabi/8.2.1/../../../../arm-none-eabi/lib/thumb/v7e-m+fp/hard\libcr_c.a(fseek.o)
                              c:/nxp/mcuxpressoide_11.0.0_2516/ide/plugins/com.nxp.mcuxpresso.tools.win32_11.0.0.201905131304/tools/bin/../lib/gcc/arm-none-eabi/8.2.1/../../../../arm-none-eabi/lib/thumb/v7e-m+fp/hard\libcr_c.a(_deferredlazyseek.o) (fseek)
c:/nxp/mcuxpressoide_11.0.0_2516/ide/plugins/com.nxp.mcuxpresso.tools.win32_11.0.0.201905131304/tools/bin/../lib/gcc/arm-none-eabi/8.2.1/../../../../arm-none-eabi/lib/thumb/v7e-m+fp/hard\libcr_c.a(ftell.o)
                              c:/nxp/mcuxpressoide_11.0.0_2516/ide/plugins/com.nxp.mcuxpresso.tools.win32_11.0.0.201905131304/tools/bin/../lib/gcc/arm-none-eabi/8.2.1/../../../../arm-none-eabi/lib/thumb/v7e-m+fp/hard\libcr_c.a(fseek.o) (ftell)
c:/nxp/mcuxpressoide_11.0.0_2516/ide/plugins/com.nxp.mcuxpresso.tools.win32_11.0.0.201905131304/tools/bin/../lib/gcc/arm-none-eabi/8.2.1/../../../../arm-none-eabi/lib/thumb/v7e-m+fp/hard\libcr_c.a(initio.o)
                              c:/nxp/mcuxpressoide_11.0.0_2516/ide/plugins/com.nxp.mcuxpresso.tools.win32_11.0.0.201905131304/tools/bin/../lib/gcc/arm-none-eabi/8.2.1/../../../../arm-none-eabi/lib/thumb/v7e-m+fp/hard\libcr_semihost_nf.a(_cr__main.o) (_initio)
c:/nxp/mcuxpressoide_11.0.0_2516/ide/plugins/com.nxp.mcuxpresso.tools.win32_11.0.0.201905131304/tools/bin/../lib/gcc/arm-none-eabi/8.2.1/../../../../arm-none-eabi/lib/thumb/v7e-m+fp/hard\libcr_c.a(printf.o)
                              ./source/MK66FN2M0xxx18_Accelerometer2.o (_printf)
c:/nxp/mcuxpressoide_11.0.0_2516/ide/plugins/com.nxp.mcuxpresso.tools.win32_11.0.0.201905131304/tools/bin/../lib/gcc/arm-none-eabi/8.2.1/../../../../arm-none-eabi/lib/thumb/v7e-m+fp/hard\libcr_c.a(setvbuf.o)
                              c:/nxp/mcuxpressoide_11.0.0_2516/ide/plugins/com.nxp.mcuxpresso.tools.win32_11.0.0.201905131304/tools/bin/../lib/gcc/arm-none-eabi/8.2.1/../../../../arm-none-eabi/lib/thumb/v7e-m+fp/hard\libcr_c.a(initio.o) (setvbuf)
c:/nxp/mcuxpressoide_11.0.0_2516/ide/plugins/com.nxp.mcuxpresso.tools.win32_11.0.0.201905131304/tools/bin/../lib/gcc/arm-none-eabi/8.2.1/../../../../arm-none-eabi/lib/thumb/v7e-m+fp/hard\libcr_c.a(strlen.o)
                              ./utilities/fsl_str.o (strlen)
c:/nxp/mcuxpressoide_11.0.0_2516/ide/plugins/com.nxp.mcuxpresso.tools.win32_11.0.0.201905131304/tools/bin/../lib/gcc/arm-none-eabi/8.2.1/../../../../arm-none-eabi/lib/thumb/v7e-m+fp/hard\libcr_c.a(memcpy.o)
                              c:/nxp/mcuxpressoide_11.0.0_2516/ide/plugins/com.nxp.mcuxpresso.tools.win32_11.0.0.201905131304/tools/bin/../lib/gcc/arm-none-eabi/8.2.1/../../../../arm-none-eabi/lib/thumb/v7e-m+fp/hard\libcr_c.a(alloc.o) (memcpy)
c:/nxp/mcuxpressoide_11.0.0_2516/ide/plugins/com.nxp.mcuxpresso.tools.win32_11.0.0.201905131304/tools/bin/../lib/gcc/arm-none-eabi/8.2.1/../../../../arm-none-eabi/lib/thumb/v7e-m+fp/hard\libcr_c.a(__init_alloc.o)
                              c:/nxp/mcuxpressoide_11.0.0_2516/ide/plugins/com.nxp.mcuxpresso.tools.win32_11.0.0.201905131304/tools/bin/../lib/gcc/arm-none-eabi/8.2.1/../../../../arm-none-eabi/lib/thumb/v7e-m+fp/hard\libcr_c.a(alloc.o) (__heaps)
c:/nxp/mcuxpressoide_11.0.0_2516/ide/plugins/com.nxp.mcuxpresso.tools.win32_11.0.0.201905131304/tools/bin/../lib/gcc/arm-none-eabi/8.2.1/../../../../arm-none-eabi/lib/thumb/v7e-m+fp/hard\libcr_c.a(_cr_sbrk.o)
                              c:/nxp/mcuxpressoide_11.0.0_2516/ide/plugins/com.nxp.mcuxpresso.tools.win32_11.0.0.201905131304/tools/bin/../lib/gcc/arm-none-eabi/8.2.1/../../../../arm-none-eabi/lib/thumb/v7e-m+fp/hard\libcr_c.a(alloc.o) (_sbrk)
c:/nxp/mcuxpressoide_11.0.0_2516/ide/plugins/com.nxp.mcuxpresso.tools.win32_11.0.0.201905131304/tools/bin/../lib/gcc/arm-none-eabi/8.2.1/../../../../arm-none-eabi/lib/thumb/v7e-m+fp/hard\libcr_c.a(_fdopen.o)
                              c:/nxp/mcuxpressoide_11.0.0_2516/ide/plugins/com.nxp.mcuxpresso.tools.win32_11.0.0.201905131304/tools/bin/../lib/gcc/arm-none-eabi/8.2.1/../../../../arm-none-eabi/lib/thumb/v7e-m+fp/hard\libcr_c.a(initio.o) (_fdopen)
c:/nxp/mcuxpressoide_11.0.0_2516/ide/plugins/com.nxp.mcuxpresso.tools.win32_11.0.0.201905131304/tools/bin/../lib/gcc/arm-none-eabi/8.2.1/../../../../arm-none-eabi/lib/thumb/v7e-m+fp/hard\libcr_c.a(errno.o)
                              c:/nxp/mcuxpressoide_11.0.0_2516/ide/plugins/com.nxp.mcuxpresso.tools.win32_11.0.0.201905131304/tools/bin/../lib/gcc/arm-none-eabi/8.2.1/../../../../arm-none-eabi/lib/thumb/v7e-m+fp/hard\libcr_c.a(ftell.o) (errno)
c:/nxp/mcuxpressoide_11.0.0_2516/ide/plugins/com.nxp.mcuxpresso.tools.win32_11.0.0.201905131304/tools/bin/../lib/gcc/arm-none-eabi/8.2.1/../../../../arm-none-eabi/lib/thumb/v7e-m+fp/hard\libcr_c.a(fclose.o)
                              c:/nxp/mcuxpressoide_11.0.0_2516/ide/plugins/com.nxp.mcuxpresso.tools.win32_11.0.0.201905131304/tools/bin/../lib/gcc/arm-none-eabi/8.2.1/../../../../arm-none-eabi/lib/thumb/v7e-m+fp/hard\libcr_c.a(initio.o) (fclose)
c:/nxp/mcuxpressoide_11.0.0_2516/ide/plugins/com.nxp.mcuxpresso.tools.win32_11.0.0.201905131304/tools/bin/../lib/gcc/arm-none-eabi/8.2.1/../../../../arm-none-eabi/lib/thumb/v7e-m+fp/hard\libcr_c.a(fflush.o)
                              c:/nxp/mcuxpressoide_11.0.0_2516/ide/plugins/com.nxp.mcuxpresso.tools.win32_11.0.0.201905131304/tools/bin/../lib/gcc/arm-none-eabi/8.2.1/../../../../arm-none-eabi/lib/thumb/v7e-m+fp/hard\libcr_c.a(fclose.o) (fflush)
c:/nxp/mcuxpressoide_11.0.0_2516/ide/plugins/com.nxp.mcuxpresso.tools.win32_11.0.0.201905131304/tools/bin/../lib/gcc/arm-none-eabi/8.2.1/../../../../arm-none-eabi/lib/thumb/v7e-m+fp/hard\libcr_c.a(remove.o)
                              c:/nxp/mcuxpressoide_11.0.0_2516/ide/plugins/com.nxp.mcuxpresso.tools.win32_11.0.0.201905131304/tools/bin/../lib/gcc/arm-none-eabi/8.2.1/../../../../arm-none-eabi/lib/thumb/v7e-m+fp/hard\libcr_c.a(fclose.o) (remove)
c:/nxp/mcuxpressoide_11.0.0_2516/ide/plugins/com.nxp.mcuxpresso.tools.win32_11.0.0.201905131304/tools/bin/../lib/gcc/arm-none-eabi/8.2.1/../../../../arm-none-eabi/lib/thumb/v7e-m+fp/hard\libcr_c.a(_cr_check_heap.o)
                              c:/nxp/mcuxpressoide_11.0.0_2516/ide/plugins/com.nxp.mcuxpresso.tools.win32_11.0.0.201905131304/tools/bin/../lib/gcc/arm-none-eabi/8.2.1/../../../../arm-none-eabi/lib/thumb/v7e-m+fp/hard\libcr_c.a(_cr_sbrk.o) (__check_heap_overflow)
c:/nxp/mcuxpressoide_11.0.0_2516/ide/plugins/com.nxp.mcuxpresso.tools.win32_11.0.0.201905131304/tools/bin/../lib/gcc/arm-none-eabi/8.2.1/../../../../arm-none-eabi/lib/thumb/v7e-m+fp/hard\libcr_c.a(_do_fflush.o)
                              c:/nxp/mcuxpressoide_11.0.0_2516/ide/plugins/com.nxp.mcuxpresso.tools.win32_11.0.0.201905131304/tools/bin/../lib/gcc/arm-none-eabi/8.2.1/../../../../arm-none-eabi/lib/thumb/v7e-m+fp/hard\libcr_c.a(fflush.o) (_do_fflush)
c:/nxp/mcuxpressoide_11.0.0_2516/ide/plugins/com.nxp.mcuxpresso.tools.win32_11.0.0.201905131304/tools/bin/../lib/gcc/arm-none-eabi/8.2.1/thumb/v7e-m+fp/hard\libcr_eabihelpers.a(double.o)
                              ./source/MK66FN2M0xxx18_Accelerometer2.o (__aeabi_dmul)
c:/nxp/mcuxpressoide_11.0.0_2516/ide/plugins/com.nxp.mcuxpresso.tools.win32_11.0.0.201905131304/tools/bin/../lib/gcc/arm-none-eabi/8.2.1/thumb/v7e-m+fp/hard\libcr_eabihelpers.a(memcpy.o)
                              c:/nxp/mcuxpressoide_11.0.0_2516/ide/plugins/com.nxp.mcuxpresso.tools.win32_11.0.0.201905131304/tools/bin/../lib/gcc/arm-none-eabi/8.2.1/../../../../arm-none-eabi/lib/thumb/v7e-m+fp/hard\libcr_c.a(memcpy.o) (__aeabi_memcpy)
c:/nxp/mcuxpressoide_11.0.0_2516/ide/plugins/com.nxp.mcuxpresso.tools.win32_11.0.0.201905131304/tools/bin/../lib/gcc/arm-none-eabi/8.2.1/../../../../arm-none-eabi/lib/thumb/v7e-m+fp/hard\libcr_semihost_nf.a(__sys_close.o)
                              c:/nxp/mcuxpressoide_11.0.0_2516/ide/plugins/com.nxp.mcuxpresso.tools.win32_11.0.0.201905131304/tools/bin/../lib/gcc/arm-none-eabi/8.2.1/../../../../arm-none-eabi/lib/thumb/v7e-m+fp/hard\libcr_c.a(fclose.o) (__sys_close)
c:/nxp/mcuxpressoide_11.0.0_2516/ide/plugins/com.nxp.mcuxpresso.tools.win32_11.0.0.201905131304/tools/bin/../lib/gcc/arm-none-eabi/8.2.1/../../../../arm-none-eabi/lib/thumb/v7e-m+fp/hard\libcr_semihost_nf.a(__sys_flen.o)
                              c:/nxp/mcuxpressoide_11.0.0_2516/ide/plugins/com.nxp.mcuxpresso.tools.win32_11.0.0.201905131304/tools/bin/../lib/gcc/arm-none-eabi/8.2.1/../../../../arm-none-eabi/lib/thumb/v7e-m+fp/hard\libcr_c.a(_writebuf.o) (__sys_flen)
c:/nxp/mcuxpressoide_11.0.0_2516/ide/plugins/com.nxp.mcuxpresso.tools.win32_11.0.0.201905131304/tools/bin/../lib/gcc/arm-none-eabi/8.2.1/../../../../arm-none-eabi/lib/thumb/v7e-m+fp/hard\libcr_semihost_nf.a(__sys_istty.o)
                              c:/nxp/mcuxpressoide_11.0.0_2516/ide/plugins/com.nxp.mcuxpresso.tools.win32_11.0.0.201905131304/tools/bin/../lib/gcc/arm-none-eabi/8.2.1/../../../../arm-none-eabi/lib/thumb/v7e-m+fp/hard\libcr_c.a(_deferredlazyseek.o) (__sys_istty)
c:/nxp/mcuxpressoide_11.0.0_2516/ide/plugins/com.nxp.mcuxpresso.tools.win32_11.0.0.201905131304/tools/bin/../lib/gcc/arm-none-eabi/8.2.1/../../../../arm-none-eabi/lib/thumb/v7e-m+fp/hard\libcr_semihost_nf.a(__sys_remove.o)
                              c:/nxp/mcuxpressoide_11.0.0_2516/ide/plugins/com.nxp.mcuxpresso.tools.win32_11.0.0.201905131304/tools/bin/../lib/gcc/arm-none-eabi/8.2.1/../../../../arm-none-eabi/lib/thumb/v7e-m+fp/hard\libcr_c.a(remove.o) (__sys_remove)
c:/nxp/mcuxpressoide_11.0.0_2516/ide/plugins/com.nxp.mcuxpresso.tools.win32_11.0.0.201905131304/tools/bin/../lib/gcc/arm-none-eabi/8.2.1/../../../../arm-none-eabi/lib/thumb/v7e-m+fp/hard\libcr_semihost_nf.a(__sys_rename.o)
                              c:/nxp/mcuxpressoide_11.0.0_2516/ide/plugins/com.nxp.mcuxpresso.tools.win32_11.0.0.201905131304/tools/bin/../lib/gcc/arm-none-eabi/8.2.1/../../../../arm-none-eabi/lib/thumb/v7e-m+fp/hard\libcr_c.a(remove.o) (__sys_rename)
c:/nxp/mcuxpressoide_11.0.0_2516/ide/plugins/com.nxp.mcuxpresso.tools.win32_11.0.0.201905131304/tools/bin/../lib/gcc/arm-none-eabi/8.2.1/../../../../arm-none-eabi/lib/thumb/v7e-m+fp/hard\libcr_semihost_nf.a(__sys_seek.o)
                              c:/nxp/mcuxpressoide_11.0.0_2516/ide/plugins/com.nxp.mcuxpresso.tools.win32_11.0.0.201905131304/tools/bin/../lib/gcc/arm-none-eabi/8.2.1/../../../../arm-none-eabi/lib/thumb/v7e-m+fp/hard\libcr_c.a(_writebuf.o) (__sys_seek)
c:/nxp/mcuxpressoide_11.0.0_2516/ide/plugins/com.nxp.mcuxpresso.tools.win32_11.0.0.201905131304/tools/bin/../lib/gcc/arm-none-eabi/8.2.1/../../../../arm-none-eabi/lib/thumb/v7e-m+fp/hard\libcr_semihost_nf.a(__sys_tmpnam.o)
                              c:/nxp/mcuxpressoide_11.0.0_2516/ide/plugins/com.nxp.mcuxpresso.tools.win32_11.0.0.201905131304/tools/bin/../lib/gcc/arm-none-eabi/8.2.1/../../../../arm-none-eabi/lib/thumb/v7e-m+fp/hard\libcr_c.a(fclose.o) (__sys_tmpnam)
c:/nxp/mcuxpressoide_11.0.0_2516/ide/plugins/com.nxp.mcuxpresso.tools.win32_11.0.0.201905131304/tools/bin/../lib/gcc/arm-none-eabi/8.2.1/../../../../arm-none-eabi/lib/thumb/v7e-m+fp/hard\libcr_semihost_nf.a(__sys_write.o)
                              c:/nxp/mcuxpressoide_11.0.0_2516/ide/plugins/com.nxp.mcuxpresso.tools.win32_11.0.0.201905131304/tools/bin/../lib/gcc/arm-none-eabi/8.2.1/../../../../arm-none-eabi/lib/thumb/v7e-m+fp/hard\libcr_c.a(_writebuf.o) (__sys_write)

Discarded input sections

 .group         0x00000000        0xc ./utilities/fsl_debug_console.o
 .group         0x00000000        0xc ./utilities/fsl_debug_console.o
 .group         0x00000000        0xc ./utilities/fsl_debug_console.o
 .group         0x00000000        0xc ./utilities/fsl_debug_console.o
 .group         0x00000000        0xc ./utilities/fsl_debug_console.o
 .group         0x00000000        0xc ./utilities/fsl_debug_console.o
 .group         0x00000000        0xc ./utilities/fsl_debug_console.o
 .group         0x00000000        0xc ./utilities/fsl_debug_console.o
 .group         0x00000000        0xc ./utilities/fsl_debug_console.o
 .group         0x00000000        0xc ./utilities/fsl_debug_console.o
 .group         0x00000000        0xc ./utilities/fsl_debug_console.o
 .group         0x00000000        0xc ./utilities/fsl_debug_console.o
 .group         0x00000000        0xc ./utilities/fsl_debug_console.o
 .group         0x00000000        0xc ./utilities/fsl_debug_console.o
 .group         0x00000000        0xc ./utilities/fsl_debug_console.o
 .group         0x00000000        0xc ./utilities/fsl_debug_console.o
 .group         0x00000000        0xc ./utilities/fsl_debug_console.o
 .group         0x00000000        0xc ./utilities/fsl_debug_console.o
 .group         0x00000000        0xc ./utilities/fsl_debug_console.o
 .group         0x00000000        0xc ./utilities/fsl_debug_console.o
 .group         0x00000000        0xc ./utilities/fsl_debug_console.o
 .group         0x00000000        0xc ./utilities/fsl_debug_console.o
 .group         0x00000000        0xc ./utilities/fsl_debug_console.o
 .group         0x00000000        0xc ./utilities/fsl_debug_console.o
 .group         0x00000000        0xc ./utilities/fsl_debug_console.o
 .group         0x00000000        0xc ./utilities/fsl_debug_console.o
 .group         0x00000000        0xc ./utilities/fsl_debug_console.o
 .text          0x00000000        0x0 ./utilities/fsl_debug_console.o
 .data          0x00000000        0x0 ./utilities/fsl_debug_console.o
 .bss           0x00000000        0x0 ./utilities/fsl_debug_console.o
 .bss.s_debugConsoleReadWaitSemaphore
                0x00000000        0x1 ./utilities/fsl_debug_console.o
 .text.DbgConsole_ReadOneCharacter
                0x00000000       0x34 ./utilities/fsl_debug_console.o
 .text.DbgConsole_SendData
                0x00000000       0x58 ./utilities/fsl_debug_console.o
 .text.DbgConsole_SendDataReliable
                0x00000000       0x58 ./utilities/fsl_debug_console.o
 .text.DbgConsole_ReadLine
                0x00000000       0xa0 ./utilities/fsl_debug_console.o
 .text.DbgConsole_ReadCharacter
                0x00000000       0x3c ./utilities/fsl_debug_console.o
 .text.DbgConsole_Deinit
                0x00000000       0x34 ./utilities/fsl_debug_console.o
 .group         0x00000000        0xc ./utilities/fsl_str.o
 .group         0x00000000        0xc ./utilities/fsl_str.o
 .group         0x00000000        0xc ./utilities/fsl_str.o
 .group         0x00000000        0xc ./utilities/fsl_str.o
 .group         0x00000000        0xc ./utilities/fsl_str.o
 .group         0x00000000        0xc ./utilities/fsl_str.o
 .group         0x00000000        0xc ./utilities/fsl_str.o
 .group         0x00000000        0xc ./utilities/fsl_str.o
 .group         0x00000000        0xc ./utilities/fsl_str.o
 .group         0x00000000        0xc ./utilities/fsl_str.o
 .group         0x00000000        0xc ./utilities/fsl_str.o
 .group         0x00000000        0xc ./utilities/fsl_str.o
 .group         0x00000000        0xc ./utilities/fsl_str.o
 .group         0x00000000        0xc ./utilities/fsl_str.o
 .group         0x00000000        0xc ./utilities/fsl_str.o
 .group         0x00000000        0xc ./utilities/fsl_str.o
 .group         0x00000000        0xc ./utilities/fsl_str.o
 .group         0x00000000        0xc ./utilities/fsl_str.o
 .group         0x00000000        0xc ./utilities/fsl_str.o
 .group         0x00000000        0xc ./utilities/fsl_str.o
 .group         0x00000000        0xc ./utilities/fsl_str.o
 .text          0x00000000        0x0 ./utilities/fsl_str.o
 .data          0x00000000        0x0 ./utilities/fsl_str.o
 .bss           0x00000000        0x0 ./utilities/fsl_str.o
 .text.ScanIgnoreWhiteSpace
                0x00000000       0x60 ./utilities/fsl_str.o
 .text.ConvertRadixNumToString
                0x00000000      0x114 ./utilities/fsl_str.o
 .text.StrFormatPrintf
                0x00000000      0x30c ./utilities/fsl_str.o
 .text.StrFormatScanf
                0x00000000      0x5e8 ./utilities/fsl_str.o
 .debug_info    0x00000000      0x55e ./utilities/fsl_str.o
 .debug_abbrev  0x00000000      0x1b3 ./utilities/fsl_str.o
 .debug_aranges
                0x00000000       0x38 ./utilities/fsl_str.o
 .debug_ranges  0x00000000       0x28 ./utilities/fsl_str.o
 .debug_macro   0x00000000      0x113 ./utilities/fsl_str.o
 .debug_macro   0x00000000      0xad8 ./utilities/fsl_str.o
 .debug_macro   0x00000000       0x10 ./utilities/fsl_str.o
 .debug_macro   0x00000000       0xc4 ./utilities/fsl_str.o
 .debug_macro   0x00000000       0x1c ./utilities/fsl_str.o
 .debug_macro   0x00000000      0x12e ./utilities/fsl_str.o
 .debug_macro   0x00000000       0x28 ./utilities/fsl_str.o
 .debug_macro   0x00000000       0x16 ./utilities/fsl_str.o
 .debug_macro   0x00000000       0x22 ./utilities/fsl_str.o
 .debug_macro   0x00000000      0x5b3 ./utilities/fsl_str.o
 .debug_macro   0x00000000       0x10 ./utilities/fsl_str.o
 .debug_macro   0x00000000       0x56 ./utilities/fsl_str.o
 .debug_macro   0x00000000       0x1c ./utilities/fsl_str.o
 .debug_macro   0x00000000       0x22 ./utilities/fsl_str.o
 .debug_macro   0x00000000       0xdf ./utilities/fsl_str.o
 .debug_macro   0x00000000      0xecf ./utilities/fsl_str.o
 .debug_macro   0x00000000       0x40 ./utilities/fsl_str.o
 .debug_macro   0x00000000    0x15ebc ./utilities/fsl_str.o
 .debug_macro   0x00000000     0x1440 ./utilities/fsl_str.o
 .debug_macro   0x00000000       0xd0 ./utilities/fsl_str.o
 .debug_macro   0x00000000      0x190 ./utilities/fsl_str.o
 .debug_macro   0x00000000       0x56 ./utilities/fsl_str.o
 .debug_line    0x00000000      0x941 ./utilities/fsl_str.o
 .debug_str     0x00000000    0xb491e ./utilities/fsl_str.o
 .comment       0x00000000       0x76 ./utilities/fsl_str.o
 .debug_frame   0x00000000       0xb4 ./utilities/fsl_str.o
 .ARM.attributes
                0x00000000       0x34 ./utilities/fsl_str.o
 .group         0x00000000        0xc ./startup/startup_mk66f18.o
 .text          0x00000000        0x0 ./startup/startup_mk66f18.o
 .data          0x00000000        0x0 ./startup/startup_mk66f18.o
 .bss           0x00000000        0x0 ./startup/startup_mk66f18.o
 .text.PORTC_IRQHandler
                0x00000000        0x8 ./startup/startup_mk66f18.o
 .debug_macro   0x00000000      0xad8 ./startup/startup_mk66f18.o
 .group         0x00000000        0xc ./source/MK66FN2M0xxx18_Accelerometer2.o
 .group         0x00000000        0xc ./source/MK66FN2M0xxx18_Accelerometer2.o
 .group         0x00000000        0xc ./source/MK66FN2M0xxx18_Accelerometer2.o
 .group         0x00000000        0xc ./source/MK66FN2M0xxx18_Accelerometer2.o
 .group         0x00000000        0xc ./source/MK66FN2M0xxx18_Accelerometer2.o
 .group         0x00000000        0xc ./source/MK66FN2M0xxx18_Accelerometer2.o
 .group         0x00000000        0xc ./source/MK66FN2M0xxx18_Accelerometer2.o
 .group         0x00000000        0xc ./source/MK66FN2M0xxx18_Accelerometer2.o
 .group         0x00000000        0xc ./source/MK66FN2M0xxx18_Accelerometer2.o
 .group         0x00000000        0xc ./source/MK66FN2M0xxx18_Accelerometer2.o
 .group         0x00000000        0xc ./source/MK66FN2M0xxx18_Accelerometer2.o
 .group         0x00000000        0xc ./source/MK66FN2M0xxx18_Accelerometer2.o
 .group         0x00000000        0xc ./source/MK66FN2M0xxx18_Accelerometer2.o
 .group         0x00000000        0xc ./source/MK66FN2M0xxx18_Accelerometer2.o
 .group         0x00000000        0xc ./source/MK66FN2M0xxx18_Accelerometer2.o
 .group         0x00000000        0xc ./source/MK66FN2M0xxx18_Accelerometer2.o
 .group         0x00000000        0xc ./source/MK66FN2M0xxx18_Accelerometer2.o
 .group         0x00000000        0xc ./source/MK66FN2M0xxx18_Accelerometer2.o
 .group         0x00000000        0xc ./source/MK66FN2M0xxx18_Accelerometer2.o
 .group         0x00000000        0xc ./source/MK66FN2M0xxx18_Accelerometer2.o
 .group         0x00000000        0xc ./source/MK66FN2M0xxx18_Accelerometer2.o
 .group         0x00000000        0xc ./source/MK66FN2M0xxx18_Accelerometer2.o
 .group         0x00000000        0xc ./source/MK66FN2M0xxx18_Accelerometer2.o
 .group         0x00000000        0xc ./source/MK66FN2M0xxx18_Accelerometer2.o
 .group         0x00000000        0xc ./source/MK66FN2M0xxx18_Accelerometer2.o
 .group         0x00000000        0xc ./source/MK66FN2M0xxx18_Accelerometer2.o
 .group         0x00000000        0xc ./source/MK66FN2M0xxx18_Accelerometer2.o
 .group         0x00000000        0xc ./source/MK66FN2M0xxx18_Accelerometer2.o
 .group         0x00000000        0xc ./source/MK66FN2M0xxx18_Accelerometer2.o
 .group         0x00000000        0xc ./source/MK66FN2M0xxx18_Accelerometer2.o
 .group         0x00000000        0xc ./source/MK66FN2M0xxx18_Accelerometer2.o
 .group         0x00000000        0xc ./source/MK66FN2M0xxx18_Accelerometer2.o
 .text          0x00000000        0x0 ./source/MK66FN2M0xxx18_Accelerometer2.o
 .data          0x00000000        0x0 ./source/MK66FN2M0xxx18_Accelerometer2.o
 .bss           0x00000000        0x0 ./source/MK66FN2M0xxx18_Accelerometer2.o
 .debug_macro   0x00000000      0xad8 ./source/MK66FN2M0xxx18_Accelerometer2.o
 .debug_macro   0x00000000       0x10 ./source/MK66FN2M0xxx18_Accelerometer2.o
 .debug_macro   0x00000000      0x12e ./source/MK66FN2M0xxx18_Accelerometer2.o
 .debug_macro   0x00000000       0x16 ./source/MK66FN2M0xxx18_Accelerometer2.o
 .debug_macro   0x00000000       0x22 ./source/MK66FN2M0xxx18_Accelerometer2.o
 .debug_macro   0x00000000      0x5b3 ./source/MK66FN2M0xxx18_Accelerometer2.o
 .debug_macro   0x00000000       0x10 ./source/MK66FN2M0xxx18_Accelerometer2.o
 .debug_macro   0x00000000       0x56 ./source/MK66FN2M0xxx18_Accelerometer2.o
 .debug_macro   0x00000000       0x1c ./source/MK66FN2M0xxx18_Accelerometer2.o
 .debug_macro   0x00000000       0x22 ./source/MK66FN2M0xxx18_Accelerometer2.o
 .debug_macro   0x00000000       0xdf ./source/MK66FN2M0xxx18_Accelerometer2.o
 .debug_macro   0x00000000      0xecf ./source/MK66FN2M0xxx18_Accelerometer2.o
 .debug_macro   0x00000000       0x40 ./source/MK66FN2M0xxx18_Accelerometer2.o
 .debug_macro   0x00000000    0x15ebc ./source/MK66FN2M0xxx18_Accelerometer2.o
 .debug_macro   0x00000000     0x1440 ./source/MK66FN2M0xxx18_Accelerometer2.o
 .debug_macro   0x00000000       0xd0 ./source/MK66FN2M0xxx18_Accelerometer2.o
 .debug_macro   0x00000000      0x190 ./source/MK66FN2M0xxx18_Accelerometer2.o
 .debug_macro   0x00000000       0x34 ./source/MK66FN2M0xxx18_Accelerometer2.o
 .debug_macro   0x00000000       0x10 ./source/MK66FN2M0xxx18_Accelerometer2.o
 .debug_macro   0x00000000       0x32 ./source/MK66FN2M0xxx18_Accelerometer2.o
 .group         0x00000000        0xc ./source/accel.o
 .group         0x00000000        0xc ./source/accel.o
 .group         0x00000000        0xc ./source/accel.o
 .group         0x00000000        0xc ./source/accel.o
 .group         0x00000000        0xc ./source/accel.o
 .group         0x00000000        0xc ./source/accel.o
 .group         0x00000000        0xc ./source/accel.o
 .group         0x00000000        0xc ./source/accel.o
 .group         0x00000000        0xc ./source/accel.o
 .group         0x00000000        0xc ./source/accel.o
 .group         0x00000000        0xc ./source/accel.o
 .group         0x00000000        0xc ./source/accel.o
 .group         0x00000000        0xc ./source/accel.o
 .group         0x00000000        0xc ./source/accel.o
 .group         0x00000000        0xc ./source/accel.o
 .group         0x00000000        0xc ./source/accel.o
 .group         0x00000000        0xc ./source/accel.o
 .group         0x00000000        0xc ./source/accel.o
 .group         0x00000000        0xc ./source/accel.o
 .text          0x00000000        0x0 ./source/accel.o
 .data          0x00000000        0x0 ./source/accel.o
 .bss           0x00000000        0x0 ./source/accel.o
 .debug_macro   0x00000000      0xad8 ./source/accel.o
 .debug_macro   0x00000000       0x10 ./source/accel.o
 .debug_macro   0x00000000       0x22 ./source/accel.o
 .debug_macro   0x00000000      0x12e ./source/accel.o
 .debug_macro   0x00000000      0x5b3 ./source/accel.o
 .debug_macro   0x00000000       0x22 ./source/accel.o
 .debug_macro   0x00000000       0x10 ./source/accel.o
 .debug_macro   0x00000000       0x56 ./source/accel.o
 .debug_macro   0x00000000       0x1c ./source/accel.o
 .debug_macro   0x00000000       0x22 ./source/accel.o
 .debug_macro   0x00000000       0xdf ./source/accel.o
 .debug_macro   0x00000000      0xecf ./source/accel.o
 .debug_macro   0x00000000       0x40 ./source/accel.o
 .debug_macro   0x00000000    0x15ebc ./source/accel.o
 .debug_macro   0x00000000     0x1440 ./source/accel.o
 .debug_macro   0x00000000       0xd0 ./source/accel.o
 .debug_macro   0x00000000      0x190 ./source/accel.o
 .group         0x00000000        0xc ./source/semihost_hardfault.o
 .text          0x00000000        0x0 ./source/semihost_hardfault.o
 .data          0x00000000        0x0 ./source/semihost_hardfault.o
 .bss           0x00000000        0x0 ./source/semihost_hardfault.o
 .debug_macro   0x00000000      0xad8 ./source/semihost_hardfault.o
 .group         0x00000000        0xc ./drivers/fsl_clock.o
 .group         0x00000000        0xc ./drivers/fsl_clock.o
 .group         0x00000000        0xc ./drivers/fsl_clock.o
 .group         0x00000000        0xc ./drivers/fsl_clock.o
 .group         0x00000000        0xc ./drivers/fsl_clock.o
 .group         0x00000000        0xc ./drivers/fsl_clock.o
 .group         0x00000000        0xc ./drivers/fsl_clock.o
 .group         0x00000000        0xc ./drivers/fsl_clock.o
 .group         0x00000000        0xc ./drivers/fsl_clock.o
 .group         0x00000000        0xc ./drivers/fsl_clock.o
 .group         0x00000000        0xc ./drivers/fsl_clock.o
 .group         0x00000000        0xc ./drivers/fsl_clock.o
 .group         0x00000000        0xc ./drivers/fsl_clock.o
 .group         0x00000000        0xc ./drivers/fsl_clock.o
 .group         0x00000000        0xc ./drivers/fsl_clock.o
 .group         0x00000000        0xc ./drivers/fsl_clock.o
 .group         0x00000000        0xc ./drivers/fsl_clock.o
 .group         0x00000000        0xc ./drivers/fsl_clock.o
 .text          0x00000000        0x0 ./drivers/fsl_clock.o
 .data          0x00000000        0x0 ./drivers/fsl_clock.o
 .bss           0x00000000        0x0 ./drivers/fsl_clock.o
 .text.CLOCK_FllStableDelay
                0x00000000       0x26 ./drivers/fsl_clock.o
 .text.CLOCK_GetOsc0ErClkFreq
                0x00000000        0xe ./drivers/fsl_clock.o
 .text.CLOCK_GetPlatClkFreq
                0x00000000       0x28 ./drivers/fsl_clock.o
 .text.CLOCK_GetFlashClkFreq
                0x00000000       0x28 ./drivers/fsl_clock.o
 .text.CLOCK_GetFlexBusClkFreq
                0x00000000       0x28 ./drivers/fsl_clock.o
 .text.CLOCK_GetBusClkFreq
                0x00000000       0x28 ./drivers/fsl_clock.o
 .text.CLOCK_EnableUsbhs0Clock
                0x00000000       0x60 ./drivers/fsl_clock.o
 .text.CLOCK_DisableUsbhs0Clock
                0x00000000       0x40 ./drivers/fsl_clock.o
 .text.CLOCK_EnableUsbhs0PhyPllClock
                0x00000000      0x150 ./drivers/fsl_clock.o
 .text.CLOCK_DisableUsbhs0PhyPllClock
                0x00000000       0x64 ./drivers/fsl_clock.o
 .text.CLOCK_EnableUsbhs0PfdClock
                0x00000000       0xc8 ./drivers/fsl_clock.o
 .text.CLOCK_DisableUsbhs0PfdClock
                0x00000000       0x2c ./drivers/fsl_clock.o
 .text.CLOCK_CalcPllDiv
                0x00000000      0x174 ./drivers/fsl_clock.o
 .text.CLOCK_SetPllClkSel
                0x00000000       0x50 ./drivers/fsl_clock.o
 .text.CLOCK_SetOsc0MonitorMode
                0x00000000       0x7c ./drivers/fsl_clock.o
 .text.CLOCK_SetRtcOscMonitorMode
                0x00000000       0x4c ./drivers/fsl_clock.o
 .text.CLOCK_SetPll0MonitorMode
                0x00000000       0x74 ./drivers/fsl_clock.o
 .text.CLOCK_SetExtPllMonitorMode
                0x00000000       0x4c ./drivers/fsl_clock.o
 .text.CLOCK_GetStatusFlags
                0x00000000       0x98 ./drivers/fsl_clock.o
 .text.CLOCK_ClearStatusFlags
                0x00000000       0x70 ./drivers/fsl_clock.o
 .text.CLOCK_DeinitOsc0
                0x00000000       0x2c ./drivers/fsl_clock.o
 .text.CLOCK_TrimInternalRefClk
                0x00000000      0x138 ./drivers/fsl_clock.o
 .text.CLOCK_GetMode
                0x00000000       0xb0 ./drivers/fsl_clock.o
 .text.CLOCK_SetFeiMode
                0x00000000       0xc0 ./drivers/fsl_clock.o
 .text.CLOCK_SetFeeMode
                0x00000000      0x10c ./drivers/fsl_clock.o
 .text.CLOCK_SetFbiMode
                0x00000000       0xd0 ./drivers/fsl_clock.o
 .text.CLOCK_SetFbeMode
                0x00000000      0x12c ./drivers/fsl_clock.o
 .text.CLOCK_SetBlpiMode
                0x00000000       0x24 ./drivers/fsl_clock.o
 .text.CLOCK_SetBlpeMode
                0x00000000       0x24 ./drivers/fsl_clock.o
 .text.CLOCK_SetPeeMode
                0x00000000       0x38 ./drivers/fsl_clock.o
 .text.CLOCK_ExternalModeToFbeModeQuick
                0x00000000       0x6c ./drivers/fsl_clock.o
 .text.CLOCK_InternalModeToFbiModeQuick
                0x00000000       0x4c ./drivers/fsl_clock.o
 .text.CLOCK_BootToFeiMode
                0x00000000       0x26 ./drivers/fsl_clock.o
 .text.CLOCK_BootToFeeMode
                0x00000000       0x3c ./drivers/fsl_clock.o
 .text.CLOCK_BootToBlpiMode
                0x00000000       0x64 ./drivers/fsl_clock.o
 .text.CLOCK_BootToBlpeMode
                0x00000000       0x84 ./drivers/fsl_clock.o
 .rodata.mcgModeMatrix
                0x00000000       0x40 ./drivers/fsl_clock.o
 .text.CLOCK_SetMcgConfig
                0x00000000      0x20c ./drivers/fsl_clock.o
 .text.SDK_DelayAtLeastUs
                0x00000000      0x10c ./drivers/fsl_clock.o
 .rodata.trimRange.8379
                0x00000000       0x10 ./drivers/fsl_clock.o
 .debug_macro   0x00000000      0xad8 ./drivers/fsl_clock.o
 .debug_macro   0x00000000       0x10 ./drivers/fsl_clock.o
 .debug_macro   0x00000000       0x1c ./drivers/fsl_clock.o
 .debug_macro   0x00000000       0x22 ./drivers/fsl_clock.o
 .debug_macro   0x00000000      0x12e ./drivers/fsl_clock.o
 .debug_macro   0x00000000      0x5b3 ./drivers/fsl_clock.o
 .debug_macro   0x00000000       0x22 ./drivers/fsl_clock.o
 .debug_macro   0x00000000       0x10 ./drivers/fsl_clock.o
 .debug_macro   0x00000000       0x56 ./drivers/fsl_clock.o
 .debug_macro   0x00000000       0x1c ./drivers/fsl_clock.o
 .debug_macro   0x00000000       0x22 ./drivers/fsl_clock.o
 .debug_macro   0x00000000       0xdf ./drivers/fsl_clock.o
 .debug_macro   0x00000000      0xecf ./drivers/fsl_clock.o
 .debug_macro   0x00000000       0x40 ./drivers/fsl_clock.o
 .debug_macro   0x00000000    0x15ebc ./drivers/fsl_clock.o
 .debug_macro   0x00000000     0x1440 ./drivers/fsl_clock.o
 .debug_macro   0x00000000       0xd0 ./drivers/fsl_clock.o
 .debug_macro   0x00000000      0x190 ./drivers/fsl_clock.o
 .group         0x00000000        0xc ./drivers/fsl_common.o
 .group         0x00000000        0xc ./drivers/fsl_common.o
 .group         0x00000000        0xc ./drivers/fsl_common.o
 .group         0x00000000        0xc ./drivers/fsl_common.o
 .group         0x00000000        0xc ./drivers/fsl_common.o
 .group         0x00000000        0xc ./drivers/fsl_common.o
 .group         0x00000000        0xc ./drivers/fsl_common.o
 .group         0x00000000        0xc ./drivers/fsl_common.o
 .group         0x00000000        0xc ./drivers/fsl_common.o
 .group         0x00000000        0xc ./drivers/fsl_common.o
 .group         0x00000000        0xc ./drivers/fsl_common.o
 .group         0x00000000        0xc ./drivers/fsl_common.o
 .group         0x00000000        0xc ./drivers/fsl_common.o
 .group         0x00000000        0xc ./drivers/fsl_common.o
 .group         0x00000000        0xc ./drivers/fsl_common.o
 .group         0x00000000        0xc ./drivers/fsl_common.o
 .group         0x00000000        0xc ./drivers/fsl_common.o
 .group         0x00000000        0xc ./drivers/fsl_common.o
 .text          0x00000000        0x0 ./drivers/fsl_common.o
 .data          0x00000000        0x0 ./drivers/fsl_common.o
 .bss           0x00000000        0x0 ./drivers/fsl_common.o
 .text.SDK_Malloc
                0x00000000       0x6a ./drivers/fsl_common.o
 .text.SDK_Free
                0x00000000       0x32 ./drivers/fsl_common.o
 .debug_info    0x00000000      0x1f5 ./drivers/fsl_common.o
 .debug_abbrev  0x00000000      0x11b ./drivers/fsl_common.o
 .debug_aranges
                0x00000000       0x28 ./drivers/fsl_common.o
 .debug_ranges  0x00000000       0x18 ./drivers/fsl_common.o
 .debug_macro   0x00000000       0xfa ./drivers/fsl_common.o
 .debug_macro   0x00000000      0xad8 ./drivers/fsl_common.o
 .debug_macro   0x00000000       0x10 ./drivers/fsl_common.o
 .debug_macro   0x00000000       0x1c ./drivers/fsl_common.o
 .debug_macro   0x00000000       0x22 ./drivers/fsl_common.o
 .debug_macro   0x00000000      0x12e ./drivers/fsl_common.o
 .debug_macro   0x00000000      0x5b3 ./drivers/fsl_common.o
 .debug_macro   0x00000000       0x22 ./drivers/fsl_common.o
 .debug_macro   0x00000000       0x10 ./drivers/fsl_common.o
 .debug_macro   0x00000000       0x56 ./drivers/fsl_common.o
 .debug_macro   0x00000000       0x1c ./drivers/fsl_common.o
 .debug_macro   0x00000000       0x22 ./drivers/fsl_common.o
 .debug_macro   0x00000000       0xdf ./drivers/fsl_common.o
 .debug_macro   0x00000000      0xecf ./drivers/fsl_common.o
 .debug_macro   0x00000000       0x40 ./drivers/fsl_common.o
 .debug_macro   0x00000000    0x15ebc ./drivers/fsl_common.o
 .debug_macro   0x00000000     0x1440 ./drivers/fsl_common.o
 .debug_macro   0x00000000       0xd0 ./drivers/fsl_common.o
 .debug_macro   0x00000000      0x190 ./drivers/fsl_common.o
 .debug_line    0x00000000      0x2dc ./drivers/fsl_common.o
 .debug_str     0x00000000    0xb40c7 ./drivers/fsl_common.o
 .comment       0x00000000       0x76 ./drivers/fsl_common.o
 .debug_frame   0x00000000       0x58 ./drivers/fsl_common.o
 .ARM.attributes
                0x00000000       0x34 ./drivers/fsl_common.o
 .group         0x00000000        0xc ./drivers/fsl_gpio.o
 .group         0x00000000        0xc ./drivers/fsl_gpio.o
 .group         0x00000000        0xc ./drivers/fsl_gpio.o
 .group         0x00000000        0xc ./drivers/fsl_gpio.o
 .group         0x00000000        0xc ./drivers/fsl_gpio.o
 .group         0x00000000        0xc ./drivers/fsl_gpio.o
 .group         0x00000000        0xc ./drivers/fsl_gpio.o
 .group         0x00000000        0xc ./drivers/fsl_gpio.o
 .group         0x00000000        0xc ./drivers/fsl_gpio.o
 .group         0x00000000        0xc ./drivers/fsl_gpio.o
 .group         0x00000000        0xc ./drivers/fsl_gpio.o
 .group         0x00000000        0xc ./drivers/fsl_gpio.o
 .group         0x00000000        0xc ./drivers/fsl_gpio.o
 .group         0x00000000        0xc ./drivers/fsl_gpio.o
 .group         0x00000000        0xc ./drivers/fsl_gpio.o
 .group         0x00000000        0xc ./drivers/fsl_gpio.o
 .group         0x00000000        0xc ./drivers/fsl_gpio.o
 .group         0x00000000        0xc ./drivers/fsl_gpio.o
 .text          0x00000000        0x0 ./drivers/fsl_gpio.o
 .data          0x00000000        0x0 ./drivers/fsl_gpio.o
 .bss           0x00000000        0x0 ./drivers/fsl_gpio.o
 .text.GPIO_PortGetInterruptFlags
                0x00000000       0x30 ./drivers/fsl_gpio.o
 .debug_macro   0x00000000      0xad8 ./drivers/fsl_gpio.o
 .debug_macro   0x00000000       0x10 ./drivers/fsl_gpio.o
 .debug_macro   0x00000000       0x1c ./drivers/fsl_gpio.o
 .debug_macro   0x00000000       0x22 ./drivers/fsl_gpio.o
 .debug_macro   0x00000000      0x12e ./drivers/fsl_gpio.o
 .debug_macro   0x00000000      0x5b3 ./drivers/fsl_gpio.o
 .debug_macro   0x00000000       0x22 ./drivers/fsl_gpio.o
 .debug_macro   0x00000000       0x10 ./drivers/fsl_gpio.o
 .debug_macro   0x00000000       0x56 ./drivers/fsl_gpio.o
 .debug_macro   0x00000000       0x1c ./drivers/fsl_gpio.o
 .debug_macro   0x00000000       0x22 ./drivers/fsl_gpio.o
 .debug_macro   0x00000000       0xdf ./drivers/fsl_gpio.o
 .debug_macro   0x00000000      0xecf ./drivers/fsl_gpio.o
 .debug_macro   0x00000000       0x40 ./drivers/fsl_gpio.o
 .debug_macro   0x00000000    0x15ebc ./drivers/fsl_gpio.o
 .debug_macro   0x00000000     0x1440 ./drivers/fsl_gpio.o
 .debug_macro   0x00000000       0xd0 ./drivers/fsl_gpio.o
 .debug_macro   0x00000000      0x190 ./drivers/fsl_gpio.o
 .group         0x00000000        0xc ./drivers/fsl_i2c.o
 .group         0x00000000        0xc ./drivers/fsl_i2c.o
 .group         0x00000000        0xc ./drivers/fsl_i2c.o
 .group         0x00000000        0xc ./drivers/fsl_i2c.o
 .group         0x00000000        0xc ./drivers/fsl_i2c.o
 .group         0x00000000        0xc ./drivers/fsl_i2c.o
 .group         0x00000000        0xc ./drivers/fsl_i2c.o
 .group         0x00000000        0xc ./drivers/fsl_i2c.o
 .group         0x00000000        0xc ./drivers/fsl_i2c.o
 .group         0x00000000        0xc ./drivers/fsl_i2c.o
 .group         0x00000000        0xc ./drivers/fsl_i2c.o
 .group         0x00000000        0xc ./drivers/fsl_i2c.o
 .group         0x00000000        0xc ./drivers/fsl_i2c.o
 .group         0x00000000        0xc ./drivers/fsl_i2c.o
 .group         0x00000000        0xc ./drivers/fsl_i2c.o
 .group         0x00000000        0xc ./drivers/fsl_i2c.o
 .group         0x00000000        0xc ./drivers/fsl_i2c.o
 .group         0x00000000        0xc ./drivers/fsl_i2c.o
 .group         0x00000000        0xc ./drivers/fsl_i2c.o
 .text          0x00000000        0x0 ./drivers/fsl_i2c.o
 .data          0x00000000        0x0 ./drivers/fsl_i2c.o
 .bss           0x00000000        0x0 ./drivers/fsl_i2c.o
 .text.__NVIC_EnableIRQ
                0x00000000       0x3c ./drivers/fsl_i2c.o
 .text.CLOCK_DisableClock
                0x00000000       0x38 ./drivers/fsl_i2c.o
 .text.EnableIRQ
                0x00000000       0x2c ./drivers/fsl_i2c.o
 .text.I2C_Enable
                0x00000000       0x40 ./drivers/fsl_i2c.o
 .text.I2C_SlaveGetStatusFlags
                0x00000000       0x18 ./drivers/fsl_i2c.o
 .text.I2C_SlaveClearStatusFlags
                0x00000000       0x1a ./drivers/fsl_i2c.o
 .rodata.s_i2cIrqs
                0x00000000        0x4 ./drivers/fsl_i2c.o
 .text.I2C_SetHoldTime
                0x00000000       0xf8 ./drivers/fsl_i2c.o
 .text.I2C_InitTransferStateMachine
                0x00000000       0xd4 ./drivers/fsl_i2c.o
 .text.I2C_MasterTransferRunStateMachine
                0x00000000      0x254 ./drivers/fsl_i2c.o
 .text.I2C_MasterDeinit
                0x00000000       0x30 ./drivers/fsl_i2c.o
 .text.I2C_MasterGetDefaultConfig
                0x00000000       0x48 ./drivers/fsl_i2c.o
 .text.I2C_EnableInterrupts
                0x00000000       0x56 ./drivers/fsl_i2c.o
 .text.I2C_DisableInterrupts
                0x00000000       0x4a ./drivers/fsl_i2c.o
 .text.I2C_MasterTransferCreateHandle
                0x00000000       0x74 ./drivers/fsl_i2c.o
 .text.I2C_MasterTransferNonBlocking
                0x00000000       0x64 ./drivers/fsl_i2c.o
 .text.I2C_MasterTransferAbort
                0x00000000       0xc4 ./drivers/fsl_i2c.o
 .text.I2C_MasterTransferGetCount
                0x00000000       0x40 ./drivers/fsl_i2c.o
 .text.I2C_MasterTransferHandleIRQ
                0x00000000       0xb4 ./drivers/fsl_i2c.o
 .text.I2C_SlaveInit
                0x00000000      0x13c ./drivers/fsl_i2c.o
 .text.I2C_SlaveDeinit
                0x00000000       0x30 ./drivers/fsl_i2c.o
 .text.I2C_SlaveGetDefaultConfig
                0x00000000       0x50 ./drivers/fsl_i2c.o
 .text.I2C_SlaveWriteBlocking
                0x00000000       0x8c ./drivers/fsl_i2c.o
 .text.I2C_SlaveReadBlocking
                0x00000000       0xc0 ./drivers/fsl_i2c.o
 .text.I2C_SlaveTransferCreateHandle
                0x00000000       0x74 ./drivers/fsl_i2c.o
 .text.I2C_SlaveTransferNonBlocking
                0x00000000       0x70 ./drivers/fsl_i2c.o
 .text.I2C_SlaveTransferAbort
                0x00000000       0x48 ./drivers/fsl_i2c.o
 .text.I2C_SlaveTransferGetCount
                0x00000000       0x54 ./drivers/fsl_i2c.o
 .text.I2C_SlaveTransferHandleIRQ
                0x00000000      0x30c ./drivers/fsl_i2c.o
 .debug_macro   0x00000000      0xad8 ./drivers/fsl_i2c.o
 .debug_macro   0x00000000       0x10 ./drivers/fsl_i2c.o
 .debug_macro   0x00000000       0x1c ./drivers/fsl_i2c.o
 .debug_macro   0x00000000       0x22 ./drivers/fsl_i2c.o
 .debug_macro   0x00000000      0x12e ./drivers/fsl_i2c.o
 .debug_macro   0x00000000      0x5b3 ./drivers/fsl_i2c.o
 .debug_macro   0x00000000       0x22 ./drivers/fsl_i2c.o
 .debug_macro   0x00000000       0x10 ./drivers/fsl_i2c.o
 .debug_macro   0x00000000       0x56 ./drivers/fsl_i2c.o
 .debug_macro   0x00000000       0x1c ./drivers/fsl_i2c.o
 .debug_macro   0x00000000       0x22 ./drivers/fsl_i2c.o
 .debug_macro   0x00000000       0xdf ./drivers/fsl_i2c.o
 .debug_macro   0x00000000      0xecf ./drivers/fsl_i2c.o
 .debug_macro   0x00000000       0x40 ./drivers/fsl_i2c.o
 .debug_macro   0x00000000    0x15ebc ./drivers/fsl_i2c.o
 .debug_macro   0x00000000     0x1440 ./drivers/fsl_i2c.o
 .debug_macro   0x00000000       0xd0 ./drivers/fsl_i2c.o
 .debug_macro   0x00000000      0x190 ./drivers/fsl_i2c.o
 .group         0x00000000        0xc ./drivers/fsl_lpuart.o
 .group         0x00000000        0xc ./drivers/fsl_lpuart.o
 .group         0x00000000        0xc ./drivers/fsl_lpuart.o
 .group         0x00000000        0xc ./drivers/fsl_lpuart.o
 .group         0x00000000        0xc ./drivers/fsl_lpuart.o
 .group         0x00000000        0xc ./drivers/fsl_lpuart.o
 .group         0x00000000        0xc ./drivers/fsl_lpuart.o
 .group         0x00000000        0xc ./drivers/fsl_lpuart.o
 .group         0x00000000        0xc ./drivers/fsl_lpuart.o
 .group         0x00000000        0xc ./drivers/fsl_lpuart.o
 .group         0x00000000        0xc ./drivers/fsl_lpuart.o
 .group         0x00000000        0xc ./drivers/fsl_lpuart.o
 .group         0x00000000        0xc ./drivers/fsl_lpuart.o
 .group         0x00000000        0xc ./drivers/fsl_lpuart.o
 .group         0x00000000        0xc ./drivers/fsl_lpuart.o
 .group         0x00000000        0xc ./drivers/fsl_lpuart.o
 .group         0x00000000        0xc ./drivers/fsl_lpuart.o
 .group         0x00000000        0xc ./drivers/fsl_lpuart.o
 .text          0x00000000        0x0 ./drivers/fsl_lpuart.o
 .data          0x00000000        0x0 ./drivers/fsl_lpuart.o
 .bss           0x00000000        0x0 ./drivers/fsl_lpuart.o
 .text.__NVIC_EnableIRQ
                0x00000000       0x3c ./drivers/fsl_lpuart.o
 .text.CLOCK_EnableClock
                0x00000000       0x34 ./drivers/fsl_lpuart.o
 .text.CLOCK_DisableClock
                0x00000000       0x38 ./drivers/fsl_lpuart.o
 .text.EnableIRQ
                0x00000000       0x2c ./drivers/fsl_lpuart.o
 .rodata.s_lpuartBases
                0x00000000        0x4 ./drivers/fsl_lpuart.o
 .rodata.s_lpuartIRQ
                0x00000000        0x1 ./drivers/fsl_lpuart.o
 .rodata.s_lpuartClock
                0x00000000        0x4 ./drivers/fsl_lpuart.o
 .rodata        0x00000000      0x5b6 ./drivers/fsl_lpuart.o
 .text.LPUART_GetInstance
                0x00000000       0x44 ./drivers/fsl_lpuart.o
 .text.LPUART_TransferGetRxRingBufferLength
                0x00000000       0x54 ./drivers/fsl_lpuart.o
 .text.LPUART_TransferIsRxRingBufferFull
                0x00000000       0x44 ./drivers/fsl_lpuart.o
 .text.LPUART_WriteNonBlocking
                0x00000000       0x48 ./drivers/fsl_lpuart.o
 .text.LPUART_ReadNonBlocking
                0x00000000       0x48 ./drivers/fsl_lpuart.o
 .text.LPUART_Init
                0x00000000      0x28c ./drivers/fsl_lpuart.o
 .text.LPUART_Deinit
                0x00000000       0x5c ./drivers/fsl_lpuart.o
 .text.LPUART_GetDefaultConfig
                0x00000000       0x7c ./drivers/fsl_lpuart.o
 .text.LPUART_SetBaudRate
                0x00000000      0x148 ./drivers/fsl_lpuart.o
 .text.LPUART_EnableInterrupts
                0x00000000       0x3c ./drivers/fsl_lpuart.o
 .text.LPUART_DisableInterrupts
                0x00000000       0x40 ./drivers/fsl_lpuart.o
 .text.LPUART_GetEnabledInterrupts
                0x00000000       0x34 ./drivers/fsl_lpuart.o
 .text.LPUART_GetStatusFlags
                0x00000000       0x1c ./drivers/fsl_lpuart.o
 .text.LPUART_ClearStatusFlags
                0x00000000       0x80 ./drivers/fsl_lpuart.o
 .text.LPUART_WriteBlocking
                0x00000000       0x58 ./drivers/fsl_lpuart.o
 .text.LPUART_ReadBlocking
                0x00000000       0xf4 ./drivers/fsl_lpuart.o
 .text.LPUART_TransferCreateHandle
                0x00000000       0x78 ./drivers/fsl_lpuart.o
 .text.LPUART_TransferStartRingBuffer
                0x00000000       0x58 ./drivers/fsl_lpuart.o
 .text.LPUART_TransferStopRingBuffer
                0x00000000       0x50 ./drivers/fsl_lpuart.o
 .text.LPUART_TransferSendNonBlocking
                0x00000000       0x9c ./drivers/fsl_lpuart.o
 .text.LPUART_TransferAbortSend
                0x00000000       0x3c ./drivers/fsl_lpuart.o
 .text.LPUART_TransferGetSendCount
                0x00000000       0x54 ./drivers/fsl_lpuart.o
 .text.LPUART_TransferReceiveNonBlocking
                0x00000000      0x198 ./drivers/fsl_lpuart.o
 .text.LPUART_TransferAbortReceive
                0x00000000       0x44 ./drivers/fsl_lpuart.o
 .text.LPUART_TransferGetReceiveCount
                0x00000000       0x54 ./drivers/fsl_lpuart.o
 .text.LPUART_TransferHandleIRQ
                0x00000000      0x29c ./drivers/fsl_lpuart.o
 .text.LPUART_TransferHandleErrorIRQ
                0x00000000       0x16 ./drivers/fsl_lpuart.o
 .debug_macro   0x00000000      0xad8 ./drivers/fsl_lpuart.o
 .debug_macro   0x00000000       0x10 ./drivers/fsl_lpuart.o
 .debug_macro   0x00000000       0x1c ./drivers/fsl_lpuart.o
 .debug_macro   0x00000000       0x22 ./drivers/fsl_lpuart.o
 .debug_macro   0x00000000      0x12e ./drivers/fsl_lpuart.o
 .debug_macro   0x00000000      0x5b3 ./drivers/fsl_lpuart.o
 .debug_macro   0x00000000       0x22 ./drivers/fsl_lpuart.o
 .debug_macro   0x00000000       0x10 ./drivers/fsl_lpuart.o
 .debug_macro   0x00000000       0x56 ./drivers/fsl_lpuart.o
 .debug_macro   0x00000000       0x1c ./drivers/fsl_lpuart.o
 .debug_macro   0x00000000       0x22 ./drivers/fsl_lpuart.o
 .debug_macro   0x00000000       0xdf ./drivers/fsl_lpuart.o
 .debug_macro   0x00000000      0xecf ./drivers/fsl_lpuart.o
 .debug_macro   0x00000000       0x40 ./drivers/fsl_lpuart.o
 .debug_macro   0x00000000    0x15ebc ./drivers/fsl_lpuart.o
 .debug_macro   0x00000000     0x1440 ./drivers/fsl_lpuart.o
 .debug_macro   0x00000000       0xd0 ./drivers/fsl_lpuart.o
 .debug_macro   0x00000000      0x190 ./drivers/fsl_lpuart.o
 .group         0x00000000        0xc ./drivers/fsl_rtc.o
 .group         0x00000000        0xc ./drivers/fsl_rtc.o
 .group         0x00000000        0xc ./drivers/fsl_rtc.o
 .group         0x00000000        0xc ./drivers/fsl_rtc.o
 .group         0x00000000        0xc ./drivers/fsl_rtc.o
 .group         0x00000000        0xc ./drivers/fsl_rtc.o
 .group         0x00000000        0xc ./drivers/fsl_rtc.o
 .group         0x00000000        0xc ./drivers/fsl_rtc.o
 .group         0x00000000        0xc ./drivers/fsl_rtc.o
 .group         0x00000000        0xc ./drivers/fsl_rtc.o
 .group         0x00000000        0xc ./drivers/fsl_rtc.o
 .group         0x00000000        0xc ./drivers/fsl_rtc.o
 .group         0x00000000        0xc ./drivers/fsl_rtc.o
 .group         0x00000000        0xc ./drivers/fsl_rtc.o
 .group         0x00000000        0xc ./drivers/fsl_rtc.o
 .group         0x00000000        0xc ./drivers/fsl_rtc.o
 .group         0x00000000        0xc ./drivers/fsl_rtc.o
 .group         0x00000000        0xc ./drivers/fsl_rtc.o
 .text          0x00000000        0x0 ./drivers/fsl_rtc.o
 .data          0x00000000        0x0 ./drivers/fsl_rtc.o
 .bss           0x00000000        0x0 ./drivers/fsl_rtc.o
 .text.CLOCK_EnableClock
                0x00000000       0x34 ./drivers/fsl_rtc.o
 .text.RTC_Reset
                0x00000000       0x32 ./drivers/fsl_rtc.o
 .rodata        0x00000000      0x1e7 ./drivers/fsl_rtc.o
 .text.RTC_CheckDatetimeFormat
                0x00000000       0xe4 ./drivers/fsl_rtc.o
 .text.RTC_ConvertDatetimeToSeconds
                0x00000000       0xdc ./drivers/fsl_rtc.o
 .text.RTC_ConvertSecondsToDatetime
                0x00000000      0x158 ./drivers/fsl_rtc.o
 .text.RTC_Init
                0x00000000       0xa4 ./drivers/fsl_rtc.o
 .text.RTC_GetDefaultConfig
                0x00000000       0x48 ./drivers/fsl_rtc.o
 .text.RTC_SetDatetime
                0x00000000       0x48 ./drivers/fsl_rtc.o
 .text.RTC_GetDatetime
                0x00000000       0x34 ./drivers/fsl_rtc.o
 .text.RTC_SetAlarm
                0x00000000       0x64 ./drivers/fsl_rtc.o
 .text.RTC_GetAlarm
                0x00000000       0x34 ./drivers/fsl_rtc.o
 .text.RTC_EnableInterrupts
                0x00000000       0x80 ./drivers/fsl_rtc.o
 .text.RTC_DisableInterrupts
                0x00000000       0x82 ./drivers/fsl_rtc.o
 .text.RTC_GetEnabledInterrupts
                0x00000000       0x7e ./drivers/fsl_rtc.o
 .text.RTC_GetStatusFlags
                0x00000000       0x6a ./drivers/fsl_rtc.o
 .text.RTC_ClearStatusFlags
                0x00000000       0x46 ./drivers/fsl_rtc.o
 .text.RTC_GetMonotonicCounter
                0x00000000       0x50 ./drivers/fsl_rtc.o
 .text.RTC_SetMonotonicCounter
                0x00000000       0x3e ./drivers/fsl_rtc.o
 .text.RTC_IncrementMonotonicCounter
                0x00000000       0x38 ./drivers/fsl_rtc.o
 .debug_info    0x00000000      0xad8 ./drivers/fsl_rtc.o
 .debug_abbrev  0x00000000      0x2ad ./drivers/fsl_rtc.o
 .debug_aranges
                0x00000000       0xb0 ./drivers/fsl_rtc.o
 .debug_ranges  0x00000000       0xa0 ./drivers/fsl_rtc.o
 .debug_macro   0x00000000      0x128 ./drivers/fsl_rtc.o
 .debug_macro   0x00000000      0xad8 ./drivers/fsl_rtc.o
 .debug_macro   0x00000000       0x10 ./drivers/fsl_rtc.o
 .debug_macro   0x00000000       0x1c ./drivers/fsl_rtc.o
 .debug_macro   0x00000000       0x22 ./drivers/fsl_rtc.o
 .debug_macro   0x00000000      0x12e ./drivers/fsl_rtc.o
 .debug_macro   0x00000000      0x5b3 ./drivers/fsl_rtc.o
 .debug_macro   0x00000000       0x22 ./drivers/fsl_rtc.o
 .debug_macro   0x00000000       0x10 ./drivers/fsl_rtc.o
 .debug_macro   0x00000000       0x56 ./drivers/fsl_rtc.o
 .debug_macro   0x00000000       0x1c ./drivers/fsl_rtc.o
 .debug_macro   0x00000000       0x22 ./drivers/fsl_rtc.o
 .debug_macro   0x00000000       0xdf ./drivers/fsl_rtc.o
 .debug_macro   0x00000000      0xecf ./drivers/fsl_rtc.o
 .debug_macro   0x00000000       0x40 ./drivers/fsl_rtc.o
 .debug_macro   0x00000000    0x15ebc ./drivers/fsl_rtc.o
 .debug_macro   0x00000000     0x1440 ./drivers/fsl_rtc.o
 .debug_macro   0x00000000       0xd0 ./drivers/fsl_rtc.o
 .debug_macro   0x00000000      0x190 ./drivers/fsl_rtc.o
 .debug_line    0x00000000      0x812 ./drivers/fsl_rtc.o
 .debug_str     0x00000000    0xb48ba ./drivers/fsl_rtc.o
 .comment       0x00000000       0x76 ./drivers/fsl_rtc.o
 .debug_frame   0x00000000      0x2f4 ./drivers/fsl_rtc.o
 .ARM.attributes
                0x00000000       0x34 ./drivers/fsl_rtc.o
 .group         0x00000000        0xc ./drivers/fsl_smc.o
 .group         0x00000000        0xc ./drivers/fsl_smc.o
 .group         0x00000000        0xc ./drivers/fsl_smc.o
 .group         0x00000000        0xc ./drivers/fsl_smc.o
 .group         0x00000000        0xc ./drivers/fsl_smc.o
 .group         0x00000000        0xc ./drivers/fsl_smc.o
 .group         0x00000000        0xc ./drivers/fsl_smc.o
 .group         0x00000000        0xc ./drivers/fsl_smc.o
 .group         0x00000000        0xc ./drivers/fsl_smc.o
 .group         0x00000000        0xc ./drivers/fsl_smc.o
 .group         0x00000000        0xc ./drivers/fsl_smc.o
 .group         0x00000000        0xc ./drivers/fsl_smc.o
 .group         0x00000000        0xc ./drivers/fsl_smc.o
 .group         0x00000000        0xc ./drivers/fsl_smc.o
 .group         0x00000000        0xc ./drivers/fsl_smc.o
 .group         0x00000000        0xc ./drivers/fsl_smc.o
 .group         0x00000000        0xc ./drivers/fsl_smc.o
 .group         0x00000000        0xc ./drivers/fsl_smc.o
 .text          0x00000000        0x0 ./drivers/fsl_smc.o
 .data          0x00000000        0x0 ./drivers/fsl_smc.o
 .bss           0x00000000        0x0 ./drivers/fsl_smc.o
 .text.DisableGlobalIRQ
                0x00000000       0x20 ./drivers/fsl_smc.o
 .text.EnableGlobalIRQ
                0x00000000       0x1e ./drivers/fsl_smc.o
 .bss.g_savedPrimask
                0x00000000        0x4 ./drivers/fsl_smc.o
 .data.s_stopRamFuncArray
                0x00000000       0x18 ./drivers/fsl_smc.o
 .text.SMC_EnterStopRamFunc
                0x00000000       0x20 ./drivers/fsl_smc.o
 .text.SMC_PreEnterStopModes
                0x00000000       0x1c ./drivers/fsl_smc.o
 .text.SMC_PostExitStopModes
                0x00000000       0x1c ./drivers/fsl_smc.o
 .text.SMC_PreEnterWaitModes
                0x00000000       0x1c ./drivers/fsl_smc.o
 .text.SMC_PostExitWaitModes
                0x00000000       0x1c ./drivers/fsl_smc.o
 .text.SMC_SetPowerModeRun
                0x00000000       0x2a ./drivers/fsl_smc.o
 .text.SMC_SetPowerModeWait
                0x00000000       0x30 ./drivers/fsl_smc.o
 .text.SMC_SetPowerModeStop
                0x00000000       0x7c ./drivers/fsl_smc.o
 .text.SMC_SetPowerModeVlpr
                0x00000000       0x32 ./drivers/fsl_smc.o
 .text.SMC_SetPowerModeVlpw
                0x00000000       0x30 ./drivers/fsl_smc.o
 .text.SMC_SetPowerModeVlps
                0x00000000       0x5c ./drivers/fsl_smc.o
 .text.SMC_SetPowerModeLls
                0x00000000       0x7c ./drivers/fsl_smc.o
 .text.SMC_SetPowerModeVlls
                0x00000000       0xe0 ./drivers/fsl_smc.o
 .debug_macro   0x00000000      0xad8 ./drivers/fsl_smc.o
 .debug_macro   0x00000000       0x10 ./drivers/fsl_smc.o
 .debug_macro   0x00000000       0x1c ./drivers/fsl_smc.o
 .debug_macro   0x00000000       0x22 ./drivers/fsl_smc.o
 .debug_macro   0x00000000      0x12e ./drivers/fsl_smc.o
 .debug_macro   0x00000000      0x5b3 ./drivers/fsl_smc.o
 .debug_macro   0x00000000       0x22 ./drivers/fsl_smc.o
 .debug_macro   0x00000000       0x10 ./drivers/fsl_smc.o
 .debug_macro   0x00000000       0x56 ./drivers/fsl_smc.o
 .debug_macro   0x00000000       0x1c ./drivers/fsl_smc.o
 .debug_macro   0x00000000       0x22 ./drivers/fsl_smc.o
 .debug_macro   0x00000000       0xdf ./drivers/fsl_smc.o
 .debug_macro   0x00000000      0xecf ./drivers/fsl_smc.o
 .debug_macro   0x00000000       0x40 ./drivers/fsl_smc.o
 .debug_macro   0x00000000    0x15ebc ./drivers/fsl_smc.o
 .debug_macro   0x00000000     0x1440 ./drivers/fsl_smc.o
 .debug_macro   0x00000000       0xd0 ./drivers/fsl_smc.o
 .debug_macro   0x00000000      0x190 ./drivers/fsl_smc.o
 .group         0x00000000        0xc ./drivers/fsl_uart.o
 .group         0x00000000        0xc ./drivers/fsl_uart.o
 .group         0x00000000        0xc ./drivers/fsl_uart.o
 .group         0x00000000        0xc ./drivers/fsl_uart.o
 .group         0x00000000        0xc ./drivers/fsl_uart.o
 .group         0x00000000        0xc ./drivers/fsl_uart.o
 .group         0x00000000        0xc ./drivers/fsl_uart.o
 .group         0x00000000        0xc ./drivers/fsl_uart.o
 .group         0x00000000        0xc ./drivers/fsl_uart.o
 .group         0x00000000        0xc ./drivers/fsl_uart.o
 .group         0x00000000        0xc ./drivers/fsl_uart.o
 .group         0x00000000        0xc ./drivers/fsl_uart.o
 .group         0x00000000        0xc ./drivers/fsl_uart.o
 .group         0x00000000        0xc ./drivers/fsl_uart.o
 .group         0x00000000        0xc ./drivers/fsl_uart.o
 .group         0x00000000        0xc ./drivers/fsl_uart.o
 .group         0x00000000        0xc ./drivers/fsl_uart.o
 .group         0x00000000        0xc ./drivers/fsl_uart.o
 .text          0x00000000        0x0 ./drivers/fsl_uart.o
 .data          0x00000000        0x0 ./drivers/fsl_uart.o
 .bss           0x00000000        0x0 ./drivers/fsl_uart.o
 .text.__NVIC_EnableIRQ
                0x00000000       0x3c ./drivers/fsl_uart.o
 .text.CLOCK_DisableClock
                0x00000000       0x38 ./drivers/fsl_uart.o
 .text.EnableIRQ
                0x00000000       0x2c ./drivers/fsl_uart.o
 .rodata.s_uartIRQ
                0x00000000        0x5 ./drivers/fsl_uart.o
 .text.UART_TransferGetRxRingBufferLength
                0x00000000       0x60 ./drivers/fsl_uart.o
 .text.UART_TransferIsRxRingBufferFull
                0x00000000       0x40 ./drivers/fsl_uart.o
 .text.UART_Deinit
                0x00000000       0x4c ./drivers/fsl_uart.o
 .text.UART_SetBaudRate
                0x00000000      0x108 ./drivers/fsl_uart.o
 .text.UART_EnableInterrupts
                0x00000000       0x70 ./drivers/fsl_uart.o
 .text.UART_DisableInterrupts
                0x00000000       0x80 ./drivers/fsl_uart.o
 .text.UART_GetEnabledInterrupts
                0x00000000       0x4c ./drivers/fsl_uart.o
 .text.UART_GetStatusFlags
                0x00000000       0x46 ./drivers/fsl_uart.o
 .text.UART_ClearStatusFlags
                0x00000000       0x8c ./drivers/fsl_uart.o
 .text.UART_WriteBlocking
                0x00000000       0x3e ./drivers/fsl_uart.o
 .text.UART_WriteNonBlocking
                0x00000000       0x44 ./drivers/fsl_uart.o
 .text.UART_ReadBlocking
                0x00000000       0x90 ./drivers/fsl_uart.o
 .text.UART_ReadNonBlocking
                0x00000000       0x48 ./drivers/fsl_uart.o
 .text.UART_TransferCreateHandle
                0x00000000       0x84 ./drivers/fsl_uart.o
 .text.UART_TransferStartRingBuffer
                0x00000000       0x74 ./drivers/fsl_uart.o
 .text.UART_TransferStopRingBuffer
                0x00000000       0x6c ./drivers/fsl_uart.o
 .text.UART_TransferSendNonBlocking
                0x00000000       0x9c ./drivers/fsl_uart.o
 .text.UART_TransferAbortSend
                0x00000000       0x3c ./drivers/fsl_uart.o
 .text.UART_TransferGetSendCount
                0x00000000       0x54 ./drivers/fsl_uart.o
 .text.UART_TransferReceiveNonBlocking
                0x00000000      0x1b0 ./drivers/fsl_uart.o
 .text.UART_TransferAbortReceive
                0x00000000       0x5c ./drivers/fsl_uart.o
 .text.UART_TransferGetReceiveCount
                0x00000000       0x60 ./drivers/fsl_uart.o
 .text.UART_TransferHandleIRQ
                0x00000000      0x4fc ./drivers/fsl_uart.o
 .text.UART_TransferHandleErrorIRQ
                0x00000000       0x16 ./drivers/fsl_uart.o
 .debug_macro   0x00000000      0xad8 ./drivers/fsl_uart.o
 .debug_macro   0x00000000       0x10 ./drivers/fsl_uart.o
 .debug_macro   0x00000000       0x1c ./drivers/fsl_uart.o
 .debug_macro   0x00000000       0x22 ./drivers/fsl_uart.o
 .debug_macro   0x00000000      0x12e ./drivers/fsl_uart.o
 .debug_macro   0x00000000      0x5b3 ./drivers/fsl_uart.o
 .debug_macro   0x00000000       0x22 ./drivers/fsl_uart.o
 .debug_macro   0x00000000       0x10 ./drivers/fsl_uart.o
 .debug_macro   0x00000000       0x56 ./drivers/fsl_uart.o
 .debug_macro   0x00000000       0x1c ./drivers/fsl_uart.o
 .debug_macro   0x00000000       0x22 ./drivers/fsl_uart.o
 .debug_macro   0x00000000       0xdf ./drivers/fsl_uart.o
 .debug_macro   0x00000000      0xecf ./drivers/fsl_uart.o
 .debug_macro   0x00000000       0x40 ./drivers/fsl_uart.o
 .debug_macro   0x00000000    0x15ebc ./drivers/fsl_uart.o
 .debug_macro   0x00000000     0x1440 ./drivers/fsl_uart.o
 .debug_macro   0x00000000       0xd0 ./drivers/fsl_uart.o
 .debug_macro   0x00000000      0x190 ./drivers/fsl_uart.o
 .group         0x00000000        0xc ./device/system_MK66F18.o
 .group         0x00000000        0xc ./device/system_MK66F18.o
 .group         0x00000000        0xc ./device/system_MK66F18.o
 .group         0x00000000        0xc ./device/system_MK66F18.o
 .group         0x00000000        0xc ./device/system_MK66F18.o
 .group         0x00000000        0xc ./device/system_MK66F18.o
 .group         0x00000000        0xc ./device/system_MK66F18.o
 .group         0x00000000        0xc ./device/system_MK66F18.o
 .group         0x00000000        0xc ./device/system_MK66F18.o
 .group         0x00000000        0xc ./device/system_MK66F18.o
 .group         0x00000000        0xc ./device/system_MK66F18.o
 .group         0x00000000        0xc ./device/system_MK66F18.o
 .group         0x00000000        0xc ./device/system_MK66F18.o
 .text          0x00000000        0x0 ./device/system_MK66F18.o
 .data          0x00000000        0x0 ./device/system_MK66F18.o
 .bss           0x00000000        0x0 ./device/system_MK66F18.o
 .text.SystemCoreClockUpdate
                0x00000000      0x310 ./device/system_MK66F18.o
 .debug_macro   0x00000000      0xad8 ./device/system_MK66F18.o
 .debug_macro   0x00000000       0x10 ./device/system_MK66F18.o
 .debug_macro   0x00000000      0x12e ./device/system_MK66F18.o
 .debug_macro   0x00000000      0x5b3 ./device/system_MK66F18.o
 .debug_macro   0x00000000       0x10 ./device/system_MK66F18.o
 .debug_macro   0x00000000       0x56 ./device/system_MK66F18.o
 .debug_macro   0x00000000       0x1c ./device/system_MK66F18.o
 .debug_macro   0x00000000       0x22 ./device/system_MK66F18.o
 .debug_macro   0x00000000       0xdf ./device/system_MK66F18.o
 .debug_macro   0x00000000      0xecf ./device/system_MK66F18.o
 .debug_macro   0x00000000       0x40 ./device/system_MK66F18.o
 .debug_macro   0x00000000    0x15ebc ./device/system_MK66F18.o
 .debug_macro   0x00000000     0x1440 ./device/system_MK66F18.o
 .group         0x00000000        0xc ./component/uart/uart_adapter.o
 .group         0x00000000        0xc ./component/uart/uart_adapter.o
 .group         0x00000000        0xc ./component/uart/uart_adapter.o
 .group         0x00000000        0xc ./component/uart/uart_adapter.o
 .group         0x00000000        0xc ./component/uart/uart_adapter.o
 .group         0x00000000        0xc ./component/uart/uart_adapter.o
 .group         0x00000000        0xc ./component/uart/uart_adapter.o
 .group         0x00000000        0xc ./component/uart/uart_adapter.o
 .group         0x00000000        0xc ./component/uart/uart_adapter.o
 .group         0x00000000        0xc ./component/uart/uart_adapter.o
 .group         0x00000000        0xc ./component/uart/uart_adapter.o
 .group         0x00000000        0xc ./component/uart/uart_adapter.o
 .group         0x00000000        0xc ./component/uart/uart_adapter.o
 .group         0x00000000        0xc ./component/uart/uart_adapter.o
 .group         0x00000000        0xc ./component/uart/uart_adapter.o
 .group         0x00000000        0xc ./component/uart/uart_adapter.o
 .group         0x00000000        0xc ./component/uart/uart_adapter.o
 .group         0x00000000        0xc ./component/uart/uart_adapter.o
 .group         0x00000000        0xc ./component/uart/uart_adapter.o
 .group         0x00000000        0xc ./component/uart/uart_adapter.o
 .text          0x00000000        0x0 ./component/uart/uart_adapter.o
 .data          0x00000000        0x0 ./component/uart/uart_adapter.o
 .bss           0x00000000        0x0 ./component/uart/uart_adapter.o
 .text.HAL_UartDeinit
                0x00000000       0x3c ./component/uart/uart_adapter.o
 .text.HAL_UartReceiveBlocking
                0x00000000       0x6c ./component/uart/uart_adapter.o
 .text.HAL_UartSendBlocking
                0x00000000       0x64 ./component/uart/uart_adapter.o
 .debug_macro   0x00000000      0xad8 ./component/uart/uart_adapter.o
 .debug_macro   0x00000000       0x10 ./component/uart/uart_adapter.o
 .debug_macro   0x00000000       0x1c ./component/uart/uart_adapter.o
 .debug_macro   0x00000000       0x22 ./component/uart/uart_adapter.o
 .debug_macro   0x00000000      0x12e ./component/uart/uart_adapter.o
 .debug_macro   0x00000000      0x5b3 ./component/uart/uart_adapter.o
 .debug_macro   0x00000000       0x22 ./component/uart/uart_adapter.o
 .debug_macro   0x00000000       0x10 ./component/uart/uart_adapter.o
 .debug_macro   0x00000000       0x56 ./component/uart/uart_adapter.o
 .debug_macro   0x00000000       0x1c ./component/uart/uart_adapter.o
 .debug_macro   0x00000000       0x22 ./component/uart/uart_adapter.o
 .debug_macro   0x00000000       0xdf ./component/uart/uart_adapter.o
 .debug_macro   0x00000000      0xecf ./component/uart/uart_adapter.o
 .debug_macro   0x00000000       0x40 ./component/uart/uart_adapter.o
 .debug_macro   0x00000000    0x15ebc ./component/uart/uart_adapter.o
 .debug_macro   0x00000000     0x1440 ./component/uart/uart_adapter.o
 .debug_macro   0x00000000       0xd0 ./component/uart/uart_adapter.o
 .debug_macro   0x00000000      0x190 ./component/uart/uart_adapter.o
 .group         0x00000000        0xc ./component/serial_manager/serial_manager.o
 .group         0x00000000        0xc ./component/serial_manager/serial_manager.o
 .group         0x00000000        0xc ./component/serial_manager/serial_manager.o
 .group         0x00000000        0xc ./component/serial_manager/serial_manager.o
 .group         0x00000000        0xc ./component/serial_manager/serial_manager.o
 .group         0x00000000        0xc ./component/serial_manager/serial_manager.o
 .group         0x00000000        0xc ./component/serial_manager/serial_manager.o
 .group         0x00000000        0xc ./component/serial_manager/serial_manager.o
 .group         0x00000000        0xc ./component/serial_manager/serial_manager.o
 .group         0x00000000        0xc ./component/serial_manager/serial_manager.o
 .group         0x00000000        0xc ./component/serial_manager/serial_manager.o
 .group         0x00000000        0xc ./component/serial_manager/serial_manager.o
 .group         0x00000000        0xc ./component/serial_manager/serial_manager.o
 .group         0x00000000        0xc ./component/serial_manager/serial_manager.o
 .group         0x00000000        0xc ./component/serial_manager/serial_manager.o
 .group         0x00000000        0xc ./component/serial_manager/serial_manager.o
 .group         0x00000000        0xc ./component/serial_manager/serial_manager.o
 .group         0x00000000        0xc ./component/serial_manager/serial_manager.o
 .group         0x00000000        0xc ./component/serial_manager/serial_manager.o
 .group         0x00000000        0xc ./component/serial_manager/serial_manager.o
 .group         0x00000000        0xc ./component/serial_manager/serial_manager.o
 .text          0x00000000        0x0 ./component/serial_manager/serial_manager.o
 .data          0x00000000        0x0 ./component/serial_manager/serial_manager.o
 .bss           0x00000000        0x0 ./component/serial_manager/serial_manager.o
 .text.SerialManager_StartWriting
                0x00000000       0x4a ./component/serial_manager/serial_manager.o
 .text.SerialManager_StartReading
                0x00000000       0x4a ./component/serial_manager/serial_manager.o
 .text.SerialManager_Write
                0x00000000       0x6c ./component/serial_manager/serial_manager.o
 .text.SerialManager_Read
                0x00000000       0x6c ./component/serial_manager/serial_manager.o
 .text.SerialManager_Deinit
                0x00000000       0x54 ./component/serial_manager/serial_manager.o
 .text.SerialManager_CloseWriteHandle
                0x00000000       0x50 ./component/serial_manager/serial_manager.o
 .text.SerialManager_CloseReadHandle
                0x00000000       0x4c ./component/serial_manager/serial_manager.o
 .text.SerialManager_WriteBlocking
                0x00000000       0x20 ./component/serial_manager/serial_manager.o
 .text.SerialManager_ReadBlocking
                0x00000000       0x20 ./component/serial_manager/serial_manager.o
 .text.SerialManager_EnterLowpower
                0x00000000       0x24 ./component/serial_manager/serial_manager.o
 .text.SerialManager_ExitLowpower
                0x00000000       0x24 ./component/serial_manager/serial_manager.o
 .debug_macro   0x00000000      0xad8 ./component/serial_manager/serial_manager.o
 .debug_macro   0x00000000       0x10 ./component/serial_manager/serial_manager.o
 .debug_macro   0x00000000       0x1c ./component/serial_manager/serial_manager.o
 .debug_macro   0x00000000       0x22 ./component/serial_manager/serial_manager.o
 .debug_macro   0x00000000      0x12e ./component/serial_manager/serial_manager.o
 .debug_macro   0x00000000      0x5b3 ./component/serial_manager/serial_manager.o
 .debug_macro   0x00000000       0x22 ./component/serial_manager/serial_manager.o
 .debug_macro   0x00000000       0x10 ./component/serial_manager/serial_manager.o
 .debug_macro   0x00000000       0x56 ./component/serial_manager/serial_manager.o
 .debug_macro   0x00000000       0x1c ./component/serial_manager/serial_manager.o
 .debug_macro   0x00000000       0x22 ./component/serial_manager/serial_manager.o
 .debug_macro   0x00000000       0xdf ./component/serial_manager/serial_manager.o
 .debug_macro   0x00000000      0xecf ./component/serial_manager/serial_manager.o
 .debug_macro   0x00000000       0x40 ./component/serial_manager/serial_manager.o
 .debug_macro   0x00000000    0x15ebc ./component/serial_manager/serial_manager.o
 .debug_macro   0x00000000     0x1440 ./component/serial_manager/serial_manager.o
 .debug_macro   0x00000000       0xd0 ./component/serial_manager/serial_manager.o
 .debug_macro   0x00000000      0x190 ./component/serial_manager/serial_manager.o
 .debug_macro   0x00000000       0x34 ./component/serial_manager/serial_manager.o
 .debug_macro   0x00000000       0x10 ./component/serial_manager/serial_manager.o
 .debug_macro   0x00000000       0x32 ./component/serial_manager/serial_manager.o
 .group         0x00000000        0xc ./component/serial_manager/serial_port_uart.o
 .group         0x00000000        0xc ./component/serial_manager/serial_port_uart.o
 .group         0x00000000        0xc ./component/serial_manager/serial_port_uart.o
 .group         0x00000000        0xc ./component/serial_manager/serial_port_uart.o
 .group         0x00000000        0xc ./component/serial_manager/serial_port_uart.o
 .group         0x00000000        0xc ./component/serial_manager/serial_port_uart.o
 .group         0x00000000        0xc ./component/serial_manager/serial_port_uart.o
 .group         0x00000000        0xc ./component/serial_manager/serial_port_uart.o
 .group         0x00000000        0xc ./component/serial_manager/serial_port_uart.o
 .group         0x00000000        0xc ./component/serial_manager/serial_port_uart.o
 .group         0x00000000        0xc ./component/serial_manager/serial_port_uart.o
 .group         0x00000000        0xc ./component/serial_manager/serial_port_uart.o
 .group         0x00000000        0xc ./component/serial_manager/serial_port_uart.o
 .group         0x00000000        0xc ./component/serial_manager/serial_port_uart.o
 .group         0x00000000        0xc ./component/serial_manager/serial_port_uart.o
 .group         0x00000000        0xc ./component/serial_manager/serial_port_uart.o
 .group         0x00000000        0xc ./component/serial_manager/serial_port_uart.o
 .group         0x00000000        0xc ./component/serial_manager/serial_port_uart.o
 .group         0x00000000        0xc ./component/serial_manager/serial_port_uart.o
 .group         0x00000000        0xc ./component/serial_manager/serial_port_uart.o
 .group         0x00000000        0xc ./component/serial_manager/serial_port_uart.o
 .group         0x00000000        0xc ./component/serial_manager/serial_port_uart.o
 .text          0x00000000        0x0 ./component/serial_manager/serial_port_uart.o
 .data          0x00000000        0x0 ./component/serial_manager/serial_port_uart.o
 .bss           0x00000000        0x0 ./component/serial_manager/serial_port_uart.o
 .text.Serial_UartDeinit
                0x00000000       0x30 ./component/serial_manager/serial_port_uart.o
 .text.Serial_UartWrite
                0x00000000       0x58 ./component/serial_manager/serial_port_uart.o
 .text.Serial_UartRead
                0x00000000       0x58 ./component/serial_manager/serial_port_uart.o
 .debug_macro   0x00000000      0xad8 ./component/serial_manager/serial_port_uart.o
 .debug_macro   0x00000000       0x10 ./component/serial_manager/serial_port_uart.o
 .debug_macro   0x00000000       0x1c ./component/serial_manager/serial_port_uart.o
 .debug_macro   0x00000000       0x22 ./component/serial_manager/serial_port_uart.o
 .debug_macro   0x00000000      0x12e ./component/serial_manager/serial_port_uart.o
 .debug_macro   0x00000000      0x5b3 ./component/serial_manager/serial_port_uart.o
 .debug_macro   0x00000000       0x22 ./component/serial_manager/serial_port_uart.o
 .debug_macro   0x00000000       0x10 ./component/serial_manager/serial_port_uart.o
 .debug_macro   0x00000000       0x56 ./component/serial_manager/serial_port_uart.o
 .debug_macro   0x00000000       0x1c ./component/serial_manager/serial_port_uart.o
 .debug_macro   0x00000000       0x22 ./component/serial_manager/serial_port_uart.o
 .debug_macro   0x00000000       0xdf ./component/serial_manager/serial_port_uart.o
 .debug_macro   0x00000000      0xecf ./component/serial_manager/serial_port_uart.o
 .debug_macro   0x00000000       0x40 ./component/serial_manager/serial_port_uart.o
 .debug_macro   0x00000000    0x15ebc ./component/serial_manager/serial_port_uart.o
 .debug_macro   0x00000000     0x1440 ./component/serial_manager/serial_port_uart.o
 .debug_macro   0x00000000       0xd0 ./component/serial_manager/serial_port_uart.o
 .debug_macro   0x00000000      0x190 ./component/serial_manager/serial_port_uart.o
 .debug_macro   0x00000000       0x34 ./component/serial_manager/serial_port_uart.o
 .debug_macro   0x00000000       0x10 ./component/serial_manager/serial_port_uart.o
 .debug_macro   0x00000000       0x32 ./component/serial_manager/serial_port_uart.o
 .group         0x00000000        0xc ./component/lists/generic_list.o
 .group         0x00000000        0xc ./component/lists/generic_list.o
 .group         0x00000000        0xc ./component/lists/generic_list.o
 .group         0x00000000        0xc ./component/lists/generic_list.o
 .group         0x00000000        0xc ./component/lists/generic_list.o
 .group         0x00000000        0xc ./component/lists/generic_list.o
 .group         0x00000000        0xc ./component/lists/generic_list.o
 .group         0x00000000        0xc ./component/lists/generic_list.o
 .group         0x00000000        0xc ./component/lists/generic_list.o
 .group         0x00000000        0xc ./component/lists/generic_list.o
 .group         0x00000000        0xc ./component/lists/generic_list.o
 .group         0x00000000        0xc ./component/lists/generic_list.o
 .group         0x00000000        0xc ./component/lists/generic_list.o
 .group         0x00000000        0xc ./component/lists/generic_list.o
 .group         0x00000000        0xc ./component/lists/generic_list.o
 .group         0x00000000        0xc ./component/lists/generic_list.o
 .group         0x00000000        0xc ./component/lists/generic_list.o
 .group         0x00000000        0xc ./component/lists/generic_list.o
 .text          0x00000000        0x0 ./component/lists/generic_list.o
 .data          0x00000000        0x0 ./component/lists/generic_list.o
 .bss           0x00000000        0x0 ./component/lists/generic_list.o
 .text.DisableGlobalIRQ
                0x00000000       0x20 ./component/lists/generic_list.o
 .text.EnableGlobalIRQ
                0x00000000       0x1e ./component/lists/generic_list.o
 .text.LIST_Scan
                0x00000000       0x3a ./component/lists/generic_list.o
 .text.LIST_Init
                0x00000000       0x30 ./component/lists/generic_list.o
 .text.LIST_GetList
                0x00000000       0x18 ./component/lists/generic_list.o
 .text.LIST_AddTail
                0x00000000       0x9e ./component/lists/generic_list.o
 .text.LIST_AddHead
                0x00000000       0x9e ./component/lists/generic_list.o
 .text.LIST_RemoveHead
                0x00000000       0x6e ./component/lists/generic_list.o
 .text.LIST_GetHead
                0x00000000       0x18 ./component/lists/generic_list.o
 .text.LIST_GetNext
                0x00000000       0x18 ./component/lists/generic_list.o
 .text.LIST_GetPrev
                0x00000000       0x18 ./component/lists/generic_list.o
 .text.LIST_RemoveElement
                0x00000000       0x86 ./component/lists/generic_list.o
 .text.LIST_AddPrevElement
                0x00000000       0xba ./component/lists/generic_list.o
 .text.LIST_GetSize
                0x00000000       0x18 ./component/lists/generic_list.o
 .text.LIST_GetAvailableSize
                0x00000000       0x20 ./component/lists/generic_list.o
 .debug_info    0x00000000      0x5b0 ./component/lists/generic_list.o
 .debug_abbrev  0x00000000      0x2c3 ./component/lists/generic_list.o
 .debug_aranges
                0x00000000       0x90 ./component/lists/generic_list.o
 .debug_ranges  0x00000000       0x80 ./component/lists/generic_list.o
 .debug_macro   0x00000000       0xf8 ./component/lists/generic_list.o
 .debug_macro   0x00000000      0xad8 ./component/lists/generic_list.o
 .debug_macro   0x00000000       0x10 ./component/lists/generic_list.o
 .debug_macro   0x00000000       0x1c ./component/lists/generic_list.o
 .debug_macro   0x00000000       0x22 ./component/lists/generic_list.o
 .debug_macro   0x00000000      0x12e ./component/lists/generic_list.o
 .debug_macro   0x00000000      0x5b3 ./component/lists/generic_list.o
 .debug_macro   0x00000000       0x22 ./component/lists/generic_list.o
 .debug_macro   0x00000000       0x10 ./component/lists/generic_list.o
 .debug_macro   0x00000000       0x56 ./component/lists/generic_list.o
 .debug_macro   0x00000000       0x1c ./component/lists/generic_list.o
 .debug_macro   0x00000000       0x22 ./component/lists/generic_list.o
 .debug_macro   0x00000000       0xdf ./component/lists/generic_list.o
 .debug_macro   0x00000000      0xecf ./component/lists/generic_list.o
 .debug_macro   0x00000000       0x40 ./component/lists/generic_list.o
 .debug_macro   0x00000000    0x15ebc ./component/lists/generic_list.o
 .debug_macro   0x00000000     0x1440 ./component/lists/generic_list.o
 .debug_macro   0x00000000       0xd0 ./component/lists/generic_list.o
 .debug_macro   0x00000000      0x190 ./component/lists/generic_list.o
 .debug_line    0x00000000      0x601 ./component/lists/generic_list.o
 .debug_str     0x00000000    0xb420e ./component/lists/generic_list.o
 .comment       0x00000000       0x76 ./component/lists/generic_list.o
 .debug_frame   0x00000000      0x254 ./component/lists/generic_list.o
 .ARM.attributes
                0x00000000       0x34 ./component/lists/generic_list.o
 .group         0x00000000        0xc ./board/boards/board.o
 .group         0x00000000        0xc ./board/boards/board.o
 .group         0x00000000        0xc ./board/boards/board.o
 .group         0x00000000        0xc ./board/boards/board.o
 .group         0x00000000        0xc ./board/boards/board.o
 .group         0x00000000        0xc ./board/boards/board.o
 .group         0x00000000        0xc ./board/boards/board.o
 .group         0x00000000        0xc ./board/boards/board.o
 .group         0x00000000        0xc ./board/boards/board.o
 .group         0x00000000        0xc ./board/boards/board.o
 .group         0x00000000        0xc ./board/boards/board.o
 .group         0x00000000        0xc ./board/boards/board.o
 .group         0x00000000        0xc ./board/boards/board.o
 .group         0x00000000        0xc ./board/boards/board.o
 .group         0x00000000        0xc ./board/boards/board.o
 .group         0x00000000        0xc ./board/boards/board.o
 .group         0x00000000        0xc ./board/boards/board.o
 .group         0x00000000        0xc ./board/boards/board.o
 .group         0x00000000        0xc ./board/boards/board.o
 .group         0x00000000        0xc ./board/boards/board.o
 .group         0x00000000        0xc ./board/boards/board.o
 .group         0x00000000        0xc ./board/boards/board.o
 .group         0x00000000        0xc ./board/boards/board.o
 .group         0x00000000        0xc ./board/boards/board.o
 .group         0x00000000        0xc ./board/boards/board.o
 .group         0x00000000        0xc ./board/boards/board.o
 .group         0x00000000        0xc ./board/boards/board.o
 .group         0x00000000        0xc ./board/boards/board.o
 .group         0x00000000        0xc ./board/boards/board.o
 .text          0x00000000        0x0 ./board/boards/board.o
 .data          0x00000000        0x0 ./board/boards/board.o
 .bss           0x00000000        0x0 ./board/boards/board.o
 .text.BOARD_I2C_Init
                0x00000000       0x36 ./board/boards/board.o
 .text.BOARD_Accel_I2C_Init
                0x00000000       0x1c ./board/boards/board.o
 .text.BOARD_Codec_I2C_Init
                0x00000000       0x1c ./board/boards/board.o
 .text.BOARD_Codec_I2C_Send
                0x00000000       0x38 ./board/boards/board.o
 .text.BOARD_Codec_I2C_Receive
                0x00000000       0x38 ./board/boards/board.o
 .debug_macro   0x00000000      0xad8 ./board/boards/board.o
 .debug_macro   0x00000000       0x10 ./board/boards/board.o
 .debug_macro   0x00000000      0x12e ./board/boards/board.o
 .debug_macro   0x00000000      0x5b3 ./board/boards/board.o
 .debug_macro   0x00000000       0x10 ./board/boards/board.o
 .debug_macro   0x00000000       0x56 ./board/boards/board.o
 .debug_macro   0x00000000       0x1c ./board/boards/board.o
 .debug_macro   0x00000000       0x22 ./board/boards/board.o
 .debug_macro   0x00000000       0xdf ./board/boards/board.o
 .debug_macro   0x00000000      0xecf ./board/boards/board.o
 .debug_macro   0x00000000       0x40 ./board/boards/board.o
 .debug_macro   0x00000000    0x15ebc ./board/boards/board.o
 .debug_macro   0x00000000     0x1440 ./board/boards/board.o
 .debug_macro   0x00000000       0x16 ./board/boards/board.o
 .debug_macro   0x00000000       0x22 ./board/boards/board.o
 .debug_macro   0x00000000       0x22 ./board/boards/board.o
 .debug_macro   0x00000000       0xd0 ./board/boards/board.o
 .debug_macro   0x00000000      0x190 ./board/boards/board.o
 .debug_macro   0x00000000       0x1c ./board/boards/board.o
 .debug_macro   0x00000000       0x10 ./board/boards/board.o
 .debug_macro   0x00000000       0x16 ./board/boards/board.o
 .debug_macro   0x00000000      0x28e ./board/boards/board.o
 .debug_macro   0x00000000       0x22 ./board/boards/board.o
 .debug_macro   0x00000000       0x34 ./board/boards/board.o
 .debug_macro   0x00000000       0x10 ./board/boards/board.o
 .debug_macro   0x00000000       0x32 ./board/boards/board.o
 .debug_macro   0x00000000       0xd2 ./board/boards/board.o
 .debug_macro   0x00000000       0x1c ./board/boards/board.o
 .group         0x00000000        0xc ./board/boards/clock_config.o
 .group         0x00000000        0xc ./board/boards/clock_config.o
 .group         0x00000000        0xc ./board/boards/clock_config.o
 .group         0x00000000        0xc ./board/boards/clock_config.o
 .group         0x00000000        0xc ./board/boards/clock_config.o
 .group         0x00000000        0xc ./board/boards/clock_config.o
 .group         0x00000000        0xc ./board/boards/clock_config.o
 .group         0x00000000        0xc ./board/boards/clock_config.o
 .group         0x00000000        0xc ./board/boards/clock_config.o
 .group         0x00000000        0xc ./board/boards/clock_config.o
 .group         0x00000000        0xc ./board/boards/clock_config.o
 .group         0x00000000        0xc ./board/boards/clock_config.o
 .group         0x00000000        0xc ./board/boards/clock_config.o
 .group         0x00000000        0xc ./board/boards/clock_config.o
 .group         0x00000000        0xc ./board/boards/clock_config.o
 .group         0x00000000        0xc ./board/boards/clock_config.o
 .group         0x00000000        0xc ./board/boards/clock_config.o
 .group         0x00000000        0xc ./board/boards/clock_config.o
 .group         0x00000000        0xc ./board/boards/clock_config.o
 .group         0x00000000        0xc ./board/boards/clock_config.o
 .text          0x00000000        0x0 ./board/boards/clock_config.o
 .data          0x00000000        0x0 ./board/boards/clock_config.o
 .bss           0x00000000        0x0 ./board/boards/clock_config.o
 .rodata.mcgConfig_BOARD_BootClockVLPR
                0x00000000        0xc ./board/boards/clock_config.o
 .rodata.simConfig_BOARD_BootClockVLPR
                0x00000000        0x8 ./board/boards/clock_config.o
 .rodata.oscConfig_BOARD_BootClockVLPR
                0x00000000        0x8 ./board/boards/clock_config.o
 .text.BOARD_BootClockVLPR
                0x00000000       0x70 ./board/boards/clock_config.o
 .debug_macro   0x00000000      0xad8 ./board/boards/clock_config.o
 .debug_macro   0x00000000       0x10 ./board/boards/clock_config.o
 .debug_macro   0x00000000       0x1c ./board/boards/clock_config.o
 .debug_macro   0x00000000       0x22 ./board/boards/clock_config.o
 .debug_macro   0x00000000      0x12e ./board/boards/clock_config.o
 .debug_macro   0x00000000      0x5b3 ./board/boards/clock_config.o
 .debug_macro   0x00000000       0x22 ./board/boards/clock_config.o
 .debug_macro   0x00000000       0x10 ./board/boards/clock_config.o
 .debug_macro   0x00000000       0x56 ./board/boards/clock_config.o
 .debug_macro   0x00000000       0x1c ./board/boards/clock_config.o
 .debug_macro   0x00000000       0x22 ./board/boards/clock_config.o
 .debug_macro   0x00000000       0xdf ./board/boards/clock_config.o
 .debug_macro   0x00000000      0xecf ./board/boards/clock_config.o
 .debug_macro   0x00000000       0x40 ./board/boards/clock_config.o
 .debug_macro   0x00000000    0x15ebc ./board/boards/clock_config.o
 .debug_macro   0x00000000     0x1440 ./board/boards/clock_config.o
 .debug_macro   0x00000000       0xd0 ./board/boards/clock_config.o
 .debug_macro   0x00000000      0x190 ./board/boards/clock_config.o
 .debug_macro   0x00000000       0x1c ./board/boards/clock_config.o
 .group         0x00000000        0xc ./board/boards/peripherals.o
 .group         0x00000000        0xc ./board/boards/peripherals.o
 .group         0x00000000        0xc ./board/boards/peripherals.o
 .group         0x00000000        0xc ./board/boards/peripherals.o
 .group         0x00000000        0xc ./board/boards/peripherals.o
 .group         0x00000000        0xc ./board/boards/peripherals.o
 .group         0x00000000        0xc ./board/boards/peripherals.o
 .group         0x00000000        0xc ./board/boards/peripherals.o
 .group         0x00000000        0xc ./board/boards/peripherals.o
 .group         0x00000000        0xc ./board/boards/peripherals.o
 .group         0x00000000        0xc ./board/boards/peripherals.o
 .group         0x00000000        0xc ./board/boards/peripherals.o
 .group         0x00000000        0xc ./board/boards/peripherals.o
 .group         0x00000000        0xc ./board/boards/peripherals.o
 .group         0x00000000        0xc ./board/boards/peripherals.o
 .group         0x00000000        0xc ./board/boards/peripherals.o
 .group         0x00000000        0xc ./board/boards/peripherals.o
 .group         0x00000000        0xc ./board/boards/peripherals.o
 .group         0x00000000        0xc ./board/boards/peripherals.o
 .group         0x00000000        0xc ./board/boards/peripherals.o
 .group         0x00000000        0xc ./board/boards/peripherals.o
 .group         0x00000000        0xc ./board/boards/peripherals.o
 .text          0x00000000        0x0 ./board/boards/peripherals.o
 .data          0x00000000        0x0 ./board/boards/peripherals.o
 .bss           0x00000000        0x0 ./board/boards/peripherals.o
 .debug_macro   0x00000000      0xad8 ./board/boards/peripherals.o
 .debug_macro   0x00000000       0x10 ./board/boards/peripherals.o
 .debug_macro   0x00000000       0x1c ./board/boards/peripherals.o
 .debug_macro   0x00000000       0x22 ./board/boards/peripherals.o
 .debug_macro   0x00000000      0x12e ./board/boards/peripherals.o
 .debug_macro   0x00000000      0x5b3 ./board/boards/peripherals.o
 .debug_macro   0x00000000       0x22 ./board/boards/peripherals.o
 .debug_macro   0x00000000       0x10 ./board/boards/peripherals.o
 .debug_macro   0x00000000       0x56 ./board/boards/peripherals.o
 .debug_macro   0x00000000       0x1c ./board/boards/peripherals.o
 .debug_macro   0x00000000       0x22 ./board/boards/peripherals.o
 .debug_macro   0x00000000       0xdf ./board/boards/peripherals.o
 .debug_macro   0x00000000      0xecf ./board/boards/peripherals.o
 .debug_macro   0x00000000       0x40 ./board/boards/peripherals.o
 .debug_macro   0x00000000    0x15ebc ./board/boards/peripherals.o
 .debug_macro   0x00000000     0x1440 ./board/boards/peripherals.o
 .debug_macro   0x00000000       0xd0 ./board/boards/peripherals.o
 .debug_macro   0x00000000      0x190 ./board/boards/peripherals.o
 .debug_macro   0x00000000       0x22 ./board/boards/peripherals.o
 .debug_macro   0x00000000       0x10 ./board/boards/peripherals.o
 .debug_macro   0x00000000       0x16 ./board/boards/peripherals.o
 .debug_macro   0x00000000       0x2e ./board/boards/peripherals.o
 .group         0x00000000        0xc ./board/boards/pin_mux.o
 .group         0x00000000        0xc ./board/boards/pin_mux.o
 .group         0x00000000        0xc ./board/boards/pin_mux.o
 .group         0x00000000        0xc ./board/boards/pin_mux.o
 .group         0x00000000        0xc ./board/boards/pin_mux.o
 .group         0x00000000        0xc ./board/boards/pin_mux.o
 .group         0x00000000        0xc ./board/boards/pin_mux.o
 .group         0x00000000        0xc ./board/boards/pin_mux.o
 .group         0x00000000        0xc ./board/boards/pin_mux.o
 .group         0x00000000        0xc ./board/boards/pin_mux.o
 .group         0x00000000        0xc ./board/boards/pin_mux.o
 .group         0x00000000        0xc ./board/boards/pin_mux.o
 .group         0x00000000        0xc ./board/boards/pin_mux.o
 .group         0x00000000        0xc ./board/boards/pin_mux.o
 .group         0x00000000        0xc ./board/boards/pin_mux.o
 .group         0x00000000        0xc ./board/boards/pin_mux.o
 .group         0x00000000        0xc ./board/boards/pin_mux.o
 .group         0x00000000        0xc ./board/boards/pin_mux.o
 .group         0x00000000        0xc ./board/boards/pin_mux.o
 .group         0x00000000        0xc ./board/boards/pin_mux.o
 .group         0x00000000        0xc ./board/boards/pin_mux.o
 .text          0x00000000        0x0 ./board/boards/pin_mux.o
 .data          0x00000000        0x0 ./board/boards/pin_mux.o
 .bss           0x00000000        0x0 ./board/boards/pin_mux.o
 .text.BOARD_InitBUTTONsPins
                0x00000000       0xac ./board/boards/pin_mux.o
 .text.BOARD_InitLEDsPins
                0x00000000       0xd4 ./board/boards/pin_mux.o
 .text.BOARD_InitGYRO_I2CPins
                0x00000000      0x104 ./board/boards/pin_mux.o
 .text.BOARD_InitSDHC0Pins
                0x00000000      0x118 ./board/boards/pin_mux.o
 .text.BOARD_InitENETPins
                0x00000000      0x170 ./board/boards/pin_mux.o
 .text.BOARD_InitUSBPins
                0x00000000       0x34 ./board/boards/pin_mux.o
 .text.BOARD_InitOSCsPins
                0x00000000       0x2c ./board/boards/pin_mux.o
 .debug_macro   0x00000000      0xad8 ./board/boards/pin_mux.o
 .debug_macro   0x00000000       0x10 ./board/boards/pin_mux.o
 .debug_macro   0x00000000       0x1c ./board/boards/pin_mux.o
 .debug_macro   0x00000000       0x22 ./board/boards/pin_mux.o
 .debug_macro   0x00000000      0x12e ./board/boards/pin_mux.o
 .debug_macro   0x00000000      0x5b3 ./board/boards/pin_mux.o
 .debug_macro   0x00000000       0x22 ./board/boards/pin_mux.o
 .debug_macro   0x00000000       0x10 ./board/boards/pin_mux.o
 .debug_macro   0x00000000       0x56 ./board/boards/pin_mux.o
 .debug_macro   0x00000000       0x1c ./board/boards/pin_mux.o
 .debug_macro   0x00000000       0x22 ./board/boards/pin_mux.o
 .debug_macro   0x00000000       0xdf ./board/boards/pin_mux.o
 .debug_macro   0x00000000      0xecf ./board/boards/pin_mux.o
 .debug_macro   0x00000000       0x40 ./board/boards/pin_mux.o
 .debug_macro   0x00000000    0x15ebc ./board/boards/pin_mux.o
 .debug_macro   0x00000000     0x1440 ./board/boards/pin_mux.o
 .debug_macro   0x00000000       0xd0 ./board/boards/pin_mux.o
 .debug_macro   0x00000000      0x190 ./board/boards/pin_mux.o
 .debug_macro   0x00000000       0x16 ./board/boards/pin_mux.o
 .debug_macro   0x00000000       0x10 ./board/boards/pin_mux.o
 .debug_macro   0x00000000      0x267 ./board/boards/pin_mux.o
 .group         0x00000000        0xc ./accel/fsl_fxos.o
 .group         0x00000000        0xc ./accel/fsl_fxos.o
 .group         0x00000000        0xc ./accel/fsl_fxos.o
 .group         0x00000000        0xc ./accel/fsl_fxos.o
 .group         0x00000000        0xc ./accel/fsl_fxos.o
 .group         0x00000000        0xc ./accel/fsl_fxos.o
 .group         0x00000000        0xc ./accel/fsl_fxos.o
 .group         0x00000000        0xc ./accel/fsl_fxos.o
 .group         0x00000000        0xc ./accel/fsl_fxos.o
 .group         0x00000000        0xc ./accel/fsl_fxos.o
 .group         0x00000000        0xc ./accel/fsl_fxos.o
 .group         0x00000000        0xc ./accel/fsl_fxos.o
 .group         0x00000000        0xc ./accel/fsl_fxos.o
 .group         0x00000000        0xc ./accel/fsl_fxos.o
 .group         0x00000000        0xc ./accel/fsl_fxos.o
 .group         0x00000000        0xc ./accel/fsl_fxos.o
 .group         0x00000000        0xc ./accel/fsl_fxos.o
 .group         0x00000000        0xc ./accel/fsl_fxos.o
 .group         0x00000000        0xc ./accel/fsl_fxos.o
 .text          0x00000000        0x0 ./accel/fsl_fxos.o
 .data          0x00000000        0x0 ./accel/fsl_fxos.o
 .bss           0x00000000        0x0 ./accel/fsl_fxos.o
 .text.FXOS_Init
                0x00000000      0x1cc ./accel/fsl_fxos.o
 .text.FXOS_ReadSensorData
                0x00000000       0xa8 ./accel/fsl_fxos.o
 .debug_macro   0x00000000      0xad8 ./accel/fsl_fxos.o
 .debug_macro   0x00000000       0x10 ./accel/fsl_fxos.o
 .debug_macro   0x00000000       0x1c ./accel/fsl_fxos.o
 .debug_macro   0x00000000       0x22 ./accel/fsl_fxos.o
 .debug_macro   0x00000000      0x12e ./accel/fsl_fxos.o
 .debug_macro   0x00000000      0x5b3 ./accel/fsl_fxos.o
 .debug_macro   0x00000000       0x22 ./accel/fsl_fxos.o
 .debug_macro   0x00000000       0x10 ./accel/fsl_fxos.o
 .debug_macro   0x00000000       0x56 ./accel/fsl_fxos.o
 .debug_macro   0x00000000       0x1c ./accel/fsl_fxos.o
 .debug_macro   0x00000000       0x22 ./accel/fsl_fxos.o
 .debug_macro   0x00000000       0xdf ./accel/fsl_fxos.o
 .debug_macro   0x00000000      0xecf ./accel/fsl_fxos.o
 .debug_macro   0x00000000       0x40 ./accel/fsl_fxos.o
 .debug_macro   0x00000000    0x15ebc ./accel/fsl_fxos.o
 .debug_macro   0x00000000     0x1440 ./accel/fsl_fxos.o
 .debug_macro   0x00000000       0xd0 ./accel/fsl_fxos.o
 .debug_macro   0x00000000      0x190 ./accel/fsl_fxos.o
 .debug_macro   0x00000000      0xb8d ./accel/fsl_fxos.o
 .text          0x00000000        0x0 c:/nxp/mcuxpressoide_11.0.0_2516/ide/plugins/com.nxp.mcuxpresso.tools.win32_11.0.0.201905131304/tools/bin/../lib/gcc/arm-none-eabi/8.2.1/../../../../arm-none-eabi/lib/thumb/v7e-m+fp/hard\libcr_semihost_nf.a(_cr__main.o)
 .data          0x00000000        0x0 c:/nxp/mcuxpressoide_11.0.0_2516/ide/plugins/com.nxp.mcuxpresso.tools.win32_11.0.0.201905131304/tools/bin/../lib/gcc/arm-none-eabi/8.2.1/../../../../arm-none-eabi/lib/thumb/v7e-m+fp/hard\libcr_semihost_nf.a(_cr__main.o)
 .bss           0x00000000        0x0 c:/nxp/mcuxpressoide_11.0.0_2516/ide/plugins/com.nxp.mcuxpresso.tools.win32_11.0.0.201905131304/tools/bin/../lib/gcc/arm-none-eabi/8.2.1/../../../../arm-none-eabi/lib/thumb/v7e-m+fp/hard\libcr_semihost_nf.a(_cr__main.o)
 .text          0x00000000        0x0 c:/nxp/mcuxpressoide_11.0.0_2516/ide/plugins/com.nxp.mcuxpresso.tools.win32_11.0.0.201905131304/tools/bin/../lib/gcc/arm-none-eabi/8.2.1/../../../../arm-none-eabi/lib/thumb/v7e-m+fp/hard\libcr_semihost_nf.a(_cr_assert.o)
 .data          0x00000000        0x0 c:/nxp/mcuxpressoide_11.0.0_2516/ide/plugins/com.nxp.mcuxpresso.tools.win32_11.0.0.201905131304/tools/bin/../lib/gcc/arm-none-eabi/8.2.1/../../../../arm-none-eabi/lib/thumb/v7e-m+fp/hard\libcr_semihost_nf.a(_cr_assert.o)
 .bss           0x00000000        0x0 c:/nxp/mcuxpressoide_11.0.0_2516/ide/plugins/com.nxp.mcuxpresso.tools.win32_11.0.0.201905131304/tools/bin/../lib/gcc/arm-none-eabi/8.2.1/../../../../arm-none-eabi/lib/thumb/v7e-m+fp/hard\libcr_semihost_nf.a(_cr_assert.o)
 .text          0x00000000        0x0 c:/nxp/mcuxpressoide_11.0.0_2516/ide/plugins/com.nxp.mcuxpresso.tools.win32_11.0.0.201905131304/tools/bin/../lib/gcc/arm-none-eabi/8.2.1/../../../../arm-none-eabi/lib/thumb/v7e-m+fp/hard\libcr_semihost_nf.a(__ciob.o)
 .data          0x00000000        0x0 c:/nxp/mcuxpressoide_11.0.0_2516/ide/plugins/com.nxp.mcuxpresso.tools.win32_11.0.0.201905131304/tools/bin/../lib/gcc/arm-none-eabi/8.2.1/../../../../arm-none-eabi/lib/thumb/v7e-m+fp/hard\libcr_semihost_nf.a(__ciob.o)
 .bss           0x00000000        0x0 c:/nxp/mcuxpressoide_11.0.0_2516/ide/plugins/com.nxp.mcuxpresso.tools.win32_11.0.0.201905131304/tools/bin/../lib/gcc/arm-none-eabi/8.2.1/../../../../arm-none-eabi/lib/thumb/v7e-m+fp/hard\libcr_semihost_nf.a(__ciob.o)
 .text          0x00000000        0x0 c:/nxp/mcuxpressoide_11.0.0_2516/ide/plugins/com.nxp.mcuxpresso.tools.win32_11.0.0.201905131304/tools/bin/../lib/gcc/arm-none-eabi/8.2.1/../../../../arm-none-eabi/lib/thumb/v7e-m+fp/hard\libcr_semihost_nf.a(__sys_appexit.o)
 .data          0x00000000        0x0 c:/nxp/mcuxpressoide_11.0.0_2516/ide/plugins/com.nxp.mcuxpresso.tools.win32_11.0.0.201905131304/tools/bin/../lib/gcc/arm-none-eabi/8.2.1/../../../../arm-none-eabi/lib/thumb/v7e-m+fp/hard\libcr_semihost_nf.a(__sys_appexit.o)
 .bss           0x00000000        0x0 c:/nxp/mcuxpressoide_11.0.0_2516/ide/plugins/com.nxp.mcuxpresso.tools.win32_11.0.0.201905131304/tools/bin/../lib/gcc/arm-none-eabi/8.2.1/../../../../arm-none-eabi/lib/thumb/v7e-m+fp/hard\libcr_semihost_nf.a(__sys_appexit.o)
 .text          0x00000000        0x0 c:/nxp/mcuxpressoide_11.0.0_2516/ide/plugins/com.nxp.mcuxpresso.tools.win32_11.0.0.201905131304/tools/bin/../lib/gcc/arm-none-eabi/8.2.1/../../../../arm-none-eabi/lib/thumb/v7e-m+fp/hard\libcr_c.a(memset.o)
 .data          0x00000000        0x0 c:/nxp/mcuxpressoide_11.0.0_2516/ide/plugins/com.nxp.mcuxpresso.tools.win32_11.0.0.201905131304/tools/bin/../lib/gcc/arm-none-eabi/8.2.1/../../../../arm-none-eabi/lib/thumb/v7e-m+fp/hard\libcr_c.a(memset.o)
 .bss           0x00000000        0x0 c:/nxp/mcuxpressoide_11.0.0_2516/ide/plugins/com.nxp.mcuxpresso.tools.win32_11.0.0.201905131304/tools/bin/../lib/gcc/arm-none-eabi/8.2.1/../../../../arm-none-eabi/lib/thumb/v7e-m+fp/hard\libcr_c.a(memset.o)
 .text          0x00000000        0x0 c:/nxp/mcuxpressoide_11.0.0_2516/ide/plugins/com.nxp.mcuxpresso.tools.win32_11.0.0.201905131304/tools/bin/../lib/gcc/arm-none-eabi/8.2.1/../../../../arm-none-eabi/lib/thumb/v7e-m+fp/hard\libcr_c.a(_deferredlazyseek.o)
 .data          0x00000000        0x0 c:/nxp/mcuxpressoide_11.0.0_2516/ide/plugins/com.nxp.mcuxpresso.tools.win32_11.0.0.201905131304/tools/bin/../lib/gcc/arm-none-eabi/8.2.1/../../../../arm-none-eabi/lib/thumb/v7e-m+fp/hard\libcr_c.a(_deferredlazyseek.o)
 .bss           0x00000000        0x0 c:/nxp/mcuxpressoide_11.0.0_2516/ide/plugins/com.nxp.mcuxpresso.tools.win32_11.0.0.201905131304/tools/bin/../lib/gcc/arm-none-eabi/8.2.1/../../../../arm-none-eabi/lib/thumb/v7e-m+fp/hard\libcr_c.a(_deferredlazyseek.o)
 .text          0x00000000        0x0 c:/nxp/mcuxpressoide_11.0.0_2516/ide/plugins/com.nxp.mcuxpresso.tools.win32_11.0.0.201905131304/tools/bin/../lib/gcc/arm-none-eabi/8.2.1/../../../../arm-none-eabi/lib/thumb/v7e-m+fp/hard\libcr_c.a(_fflush.o)
 .data          0x00000000        0x0 c:/nxp/mcuxpressoide_11.0.0_2516/ide/plugins/com.nxp.mcuxpresso.tools.win32_11.0.0.201905131304/tools/bin/../lib/gcc/arm-none-eabi/8.2.1/../../../../arm-none-eabi/lib/thumb/v7e-m+fp/hard\libcr_c.a(_fflush.o)
 .bss           0x00000000        0x0 c:/nxp/mcuxpressoide_11.0.0_2516/ide/plugins/com.nxp.mcuxpresso.tools.win32_11.0.0.201905131304/tools/bin/../lib/gcc/arm-none-eabi/8.2.1/../../../../arm-none-eabi/lib/thumb/v7e-m+fp/hard\libcr_c.a(_fflush.o)
 .text          0x00000000        0x0 c:/nxp/mcuxpressoide_11.0.0_2516/ide/plugins/com.nxp.mcuxpresso.tools.win32_11.0.0.201905131304/tools/bin/../lib/gcc/arm-none-eabi/8.2.1/../../../../arm-none-eabi/lib/thumb/v7e-m+fp/hard\libcr_c.a(_writebuf.o)
 .data          0x00000000        0x0 c:/nxp/mcuxpressoide_11.0.0_2516/ide/plugins/com.nxp.mcuxpresso.tools.win32_11.0.0.201905131304/tools/bin/../lib/gcc/arm-none-eabi/8.2.1/../../../../arm-none-eabi/lib/thumb/v7e-m+fp/hard\libcr_c.a(_writebuf.o)
 .bss           0x00000000        0x0 c:/nxp/mcuxpressoide_11.0.0_2516/ide/plugins/com.nxp.mcuxpresso.tools.win32_11.0.0.201905131304/tools/bin/../lib/gcc/arm-none-eabi/8.2.1/../../../../arm-none-eabi/lib/thumb/v7e-m+fp/hard\libcr_c.a(_writebuf.o)
 .text          0x00000000        0x0 c:/nxp/mcuxpressoide_11.0.0_2516/ide/plugins/com.nxp.mcuxpresso.tools.win32_11.0.0.201905131304/tools/bin/../lib/gcc/arm-none-eabi/8.2.1/../../../../arm-none-eabi/lib/thumb/v7e-m+fp/hard\libcr_c.a(alloc.o)
 .data          0x00000000        0x0 c:/nxp/mcuxpressoide_11.0.0_2516/ide/plugins/com.nxp.mcuxpresso.tools.win32_11.0.0.201905131304/tools/bin/../lib/gcc/arm-none-eabi/8.2.1/../../../../arm-none-eabi/lib/thumb/v7e-m+fp/hard\libcr_c.a(alloc.o)
 .bss           0x00000000        0x0 c:/nxp/mcuxpressoide_11.0.0_2516/ide/plugins/com.nxp.mcuxpresso.tools.win32_11.0.0.201905131304/tools/bin/../lib/gcc/arm-none-eabi/8.2.1/../../../../arm-none-eabi/lib/thumb/v7e-m+fp/hard\libcr_c.a(alloc.o)
 .text.calloc   0x00000000       0x50 c:/nxp/mcuxpressoide_11.0.0_2516/ide/plugins/com.nxp.mcuxpresso.tools.win32_11.0.0.201905131304/tools/bin/../lib/gcc/arm-none-eabi/8.2.1/../../../../arm-none-eabi/lib/thumb/v7e-m+fp/hard\libcr_c.a(alloc.o)
 .text.realloc  0x00000000       0x24 c:/nxp/mcuxpressoide_11.0.0_2516/ide/plugins/com.nxp.mcuxpresso.tools.win32_11.0.0.201905131304/tools/bin/../lib/gcc/arm-none-eabi/8.2.1/../../../../arm-none-eabi/lib/thumb/v7e-m+fp/hard\libcr_c.a(alloc.o)
 .text          0x00000000        0x0 c:/nxp/mcuxpressoide_11.0.0_2516/ide/plugins/com.nxp.mcuxpresso.tools.win32_11.0.0.201905131304/tools/bin/../lib/gcc/arm-none-eabi/8.2.1/../../../../arm-none-eabi/lib/thumb/v7e-m+fp/hard\libcr_c.a(floor.o)
 .data          0x00000000        0x0 c:/nxp/mcuxpressoide_11.0.0_2516/ide/plugins/com.nxp.mcuxpresso.tools.win32_11.0.0.201905131304/tools/bin/../lib/gcc/arm-none-eabi/8.2.1/../../../../arm-none-eabi/lib/thumb/v7e-m+fp/hard\libcr_c.a(floor.o)
 .bss           0x00000000        0x0 c:/nxp/mcuxpressoide_11.0.0_2516/ide/plugins/com.nxp.mcuxpresso.tools.win32_11.0.0.201905131304/tools/bin/../lib/gcc/arm-none-eabi/8.2.1/../../../../arm-none-eabi/lib/thumb/v7e-m+fp/hard\libcr_c.a(floor.o)
 .text          0x00000000        0x0 c:/nxp/mcuxpressoide_11.0.0_2516/ide/plugins/com.nxp.mcuxpresso.tools.win32_11.0.0.201905131304/tools/bin/../lib/gcc/arm-none-eabi/8.2.1/../../../../arm-none-eabi/lib/thumb/v7e-m+fp/hard\libcr_c.a(fputs.o)
 .data          0x00000000        0x0 c:/nxp/mcuxpressoide_11.0.0_2516/ide/plugins/com.nxp.mcuxpresso.tools.win32_11.0.0.201905131304/tools/bin/../lib/gcc/arm-none-eabi/8.2.1/../../../../arm-none-eabi/lib/thumb/v7e-m+fp/hard\libcr_c.a(fputs.o)
 .bss           0x00000000        0x0 c:/nxp/mcuxpressoide_11.0.0_2516/ide/plugins/com.nxp.mcuxpresso.tools.win32_11.0.0.201905131304/tools/bin/../lib/gcc/arm-none-eabi/8.2.1/../../../../arm-none-eabi/lib/thumb/v7e-m+fp/hard\libcr_c.a(fputs.o)
 .text          0x00000000        0x0 c:/nxp/mcuxpressoide_11.0.0_2516/ide/plugins/com.nxp.mcuxpresso.tools.win32_11.0.0.201905131304/tools/bin/../lib/gcc/arm-none-eabi/8.2.1/../../../../arm-none-eabi/lib/thumb/v7e-m+fp/hard\libcr_c.a(fseek.o)
 .data          0x00000000        0x0 c:/nxp/mcuxpressoide_11.0.0_2516/ide/plugins/com.nxp.mcuxpresso.tools.win32_11.0.0.201905131304/tools/bin/../lib/gcc/arm-none-eabi/8.2.1/../../../../arm-none-eabi/lib/thumb/v7e-m+fp/hard\libcr_c.a(fseek.o)
 .bss           0x00000000        0x0 c:/nxp/mcuxpressoide_11.0.0_2516/ide/plugins/com.nxp.mcuxpresso.tools.win32_11.0.0.201905131304/tools/bin/../lib/gcc/arm-none-eabi/8.2.1/../../../../arm-none-eabi/lib/thumb/v7e-m+fp/hard\libcr_c.a(fseek.o)
 .text          0x00000000        0x0 c:/nxp/mcuxpressoide_11.0.0_2516/ide/plugins/com.nxp.mcuxpresso.tools.win32_11.0.0.201905131304/tools/bin/../lib/gcc/arm-none-eabi/8.2.1/../../../../arm-none-eabi/lib/thumb/v7e-m+fp/hard\libcr_c.a(ftell.o)
 .data          0x00000000        0x0 c:/nxp/mcuxpressoide_11.0.0_2516/ide/plugins/com.nxp.mcuxpresso.tools.win32_11.0.0.201905131304/tools/bin/../lib/gcc/arm-none-eabi/8.2.1/../../../../arm-none-eabi/lib/thumb/v7e-m+fp/hard\libcr_c.a(ftell.o)
 .bss           0x00000000        0x0 c:/nxp/mcuxpressoide_11.0.0_2516/ide/plugins/com.nxp.mcuxpresso.tools.win32_11.0.0.201905131304/tools/bin/../lib/gcc/arm-none-eabi/8.2.1/../../../../arm-none-eabi/lib/thumb/v7e-m+fp/hard\libcr_c.a(ftell.o)
 .text          0x00000000        0x0 c:/nxp/mcuxpressoide_11.0.0_2516/ide/plugins/com.nxp.mcuxpresso.tools.win32_11.0.0.201905131304/tools/bin/../lib/gcc/arm-none-eabi/8.2.1/../../../../arm-none-eabi/lib/thumb/v7e-m+fp/hard\libcr_c.a(initio.o)
 .data          0x00000000        0x0 c:/nxp/mcuxpressoide_11.0.0_2516/ide/plugins/com.nxp.mcuxpresso.tools.win32_11.0.0.201905131304/tools/bin/../lib/gcc/arm-none-eabi/8.2.1/../../../../arm-none-eabi/lib/thumb/v7e-m+fp/hard\libcr_c.a(initio.o)
 .bss           0x00000000        0x0 c:/nxp/mcuxpressoide_11.0.0_2516/ide/plugins/com.nxp.mcuxpresso.tools.win32_11.0.0.201905131304/tools/bin/../lib/gcc/arm-none-eabi/8.2.1/../../../../arm-none-eabi/lib/thumb/v7e-m+fp/hard\libcr_c.a(initio.o)
 .text._terminateio
                0x00000000       0x50 c:/nxp/mcuxpressoide_11.0.0_2516/ide/plugins/com.nxp.mcuxpresso.tools.win32_11.0.0.201905131304/tools/bin/../lib/gcc/arm-none-eabi/8.2.1/../../../../arm-none-eabi/lib/thumb/v7e-m+fp/hard\libcr_c.a(initio.o)
 .text          0x00000000        0x0 c:/nxp/mcuxpressoide_11.0.0_2516/ide/plugins/com.nxp.mcuxpresso.tools.win32_11.0.0.201905131304/tools/bin/../lib/gcc/arm-none-eabi/8.2.1/../../../../arm-none-eabi/lib/thumb/v7e-m+fp/hard\libcr_c.a(printf.o)
 .data          0x00000000        0x0 c:/nxp/mcuxpressoide_11.0.0_2516/ide/plugins/com.nxp.mcuxpresso.tools.win32_11.0.0.201905131304/tools/bin/../lib/gcc/arm-none-eabi/8.2.1/../../../../arm-none-eabi/lib/thumb/v7e-m+fp/hard\libcr_c.a(printf.o)
 .bss           0x00000000        0x0 c:/nxp/mcuxpressoide_11.0.0_2516/ide/plugins/com.nxp.mcuxpresso.tools.win32_11.0.0.201905131304/tools/bin/../lib/gcc/arm-none-eabi/8.2.1/../../../../arm-none-eabi/lib/thumb/v7e-m+fp/hard\libcr_c.a(printf.o)
 .text._fprintf
                0x00000000       0x30 c:/nxp/mcuxpressoide_11.0.0_2516/ide/plugins/com.nxp.mcuxpresso.tools.win32_11.0.0.201905131304/tools/bin/../lib/gcc/arm-none-eabi/8.2.1/../../../../arm-none-eabi/lib/thumb/v7e-m+fp/hard\libcr_c.a(printf.o)
 .text._printf_char
                0x00000000       0x34 c:/nxp/mcuxpressoide_11.0.0_2516/ide/plugins/com.nxp.mcuxpresso.tools.win32_11.0.0.201905131304/tools/bin/../lib/gcc/arm-none-eabi/8.2.1/../../../../arm-none-eabi/lib/thumb/v7e-m+fp/hard\libcr_c.a(printf.o)
 .text._sprintf
                0x00000000       0x6c c:/nxp/mcuxpressoide_11.0.0_2516/ide/plugins/com.nxp.mcuxpresso.tools.win32_11.0.0.201905131304/tools/bin/../lib/gcc/arm-none-eabi/8.2.1/../../../../arm-none-eabi/lib/thumb/v7e-m+fp/hard\libcr_c.a(printf.o)
 .text._snprintf
                0x00000000       0x78 c:/nxp/mcuxpressoide_11.0.0_2516/ide/plugins/com.nxp.mcuxpresso.tools.win32_11.0.0.201905131304/tools/bin/../lib/gcc/arm-none-eabi/8.2.1/../../../../arm-none-eabi/lib/thumb/v7e-m+fp/hard\libcr_c.a(printf.o)
 .text._vfprintf
                0x00000000       0x20 c:/nxp/mcuxpressoide_11.0.0_2516/ide/plugins/com.nxp.mcuxpresso.tools.win32_11.0.0.201905131304/tools/bin/../lib/gcc/arm-none-eabi/8.2.1/../../../../arm-none-eabi/lib/thumb/v7e-m+fp/hard\libcr_c.a(printf.o)
 .text._vprintf
                0x00000000       0x28 c:/nxp/mcuxpressoide_11.0.0_2516/ide/plugins/com.nxp.mcuxpresso.tools.win32_11.0.0.201905131304/tools/bin/../lib/gcc/arm-none-eabi/8.2.1/../../../../arm-none-eabi/lib/thumb/v7e-m+fp/hard\libcr_c.a(printf.o)
 .text._vsprintf
                0x00000000       0x5c c:/nxp/mcuxpressoide_11.0.0_2516/ide/plugins/com.nxp.mcuxpresso.tools.win32_11.0.0.201905131304/tools/bin/../lib/gcc/arm-none-eabi/8.2.1/../../../../arm-none-eabi/lib/thumb/v7e-m+fp/hard\libcr_c.a(printf.o)
 .text          0x00000000        0x0 c:/nxp/mcuxpressoide_11.0.0_2516/ide/plugins/com.nxp.mcuxpresso.tools.win32_11.0.0.201905131304/tools/bin/../lib/gcc/arm-none-eabi/8.2.1/../../../../arm-none-eabi/lib/thumb/v7e-m+fp/hard\libcr_c.a(setvbuf.o)
 .data          0x00000000        0x0 c:/nxp/mcuxpressoide_11.0.0_2516/ide/plugins/com.nxp.mcuxpresso.tools.win32_11.0.0.201905131304/tools/bin/../lib/gcc/arm-none-eabi/8.2.1/../../../../arm-none-eabi/lib/thumb/v7e-m+fp/hard\libcr_c.a(setvbuf.o)
 .bss           0x00000000        0x0 c:/nxp/mcuxpressoide_11.0.0_2516/ide/plugins/com.nxp.mcuxpresso.tools.win32_11.0.0.201905131304/tools/bin/../lib/gcc/arm-none-eabi/8.2.1/../../../../arm-none-eabi/lib/thumb/v7e-m+fp/hard\libcr_c.a(setvbuf.o)
 .text          0x00000000        0x0 c:/nxp/mcuxpressoide_11.0.0_2516/ide/plugins/com.nxp.mcuxpresso.tools.win32_11.0.0.201905131304/tools/bin/../lib/gcc/arm-none-eabi/8.2.1/../../../../arm-none-eabi/lib/thumb/v7e-m+fp/hard\libcr_c.a(strlen.o)
 .data          0x00000000        0x0 c:/nxp/mcuxpressoide_11.0.0_2516/ide/plugins/com.nxp.mcuxpresso.tools.win32_11.0.0.201905131304/tools/bin/../lib/gcc/arm-none-eabi/8.2.1/../../../../arm-none-eabi/lib/thumb/v7e-m+fp/hard\libcr_c.a(strlen.o)
 .bss           0x00000000        0x0 c:/nxp/mcuxpressoide_11.0.0_2516/ide/plugins/com.nxp.mcuxpresso.tools.win32_11.0.0.201905131304/tools/bin/../lib/gcc/arm-none-eabi/8.2.1/../../../../arm-none-eabi/lib/thumb/v7e-m+fp/hard\libcr_c.a(strlen.o)
 .text          0x00000000        0x0 c:/nxp/mcuxpressoide_11.0.0_2516/ide/plugins/com.nxp.mcuxpresso.tools.win32_11.0.0.201905131304/tools/bin/../lib/gcc/arm-none-eabi/8.2.1/../../../../arm-none-eabi/lib/thumb/v7e-m+fp/hard\libcr_c.a(memcpy.o)
 .data          0x00000000        0x0 c:/nxp/mcuxpressoide_11.0.0_2516/ide/plugins/com.nxp.mcuxpresso.tools.win32_11.0.0.201905131304/tools/bin/../lib/gcc/arm-none-eabi/8.2.1/../../../../arm-none-eabi/lib/thumb/v7e-m+fp/hard\libcr_c.a(memcpy.o)
 .bss           0x00000000        0x0 c:/nxp/mcuxpressoide_11.0.0_2516/ide/plugins/com.nxp.mcuxpresso.tools.win32_11.0.0.201905131304/tools/bin/../lib/gcc/arm-none-eabi/8.2.1/../../../../arm-none-eabi/lib/thumb/v7e-m+fp/hard\libcr_c.a(memcpy.o)
 .text.memcpy   0x00000000        0x4 c:/nxp/mcuxpressoide_11.0.0_2516/ide/plugins/com.nxp.mcuxpresso.tools.win32_11.0.0.201905131304/tools/bin/../lib/gcc/arm-none-eabi/8.2.1/../../../../arm-none-eabi/lib/thumb/v7e-m+fp/hard\libcr_c.a(memcpy.o)
 .comment       0x00000000       0x76 c:/nxp/mcuxpressoide_11.0.0_2516/ide/plugins/com.nxp.mcuxpresso.tools.win32_11.0.0.201905131304/tools/bin/../lib/gcc/arm-none-eabi/8.2.1/../../../../arm-none-eabi/lib/thumb/v7e-m+fp/hard\libcr_c.a(memcpy.o)
 .ARM.attributes
                0x00000000       0x34 c:/nxp/mcuxpressoide_11.0.0_2516/ide/plugins/com.nxp.mcuxpresso.tools.win32_11.0.0.201905131304/tools/bin/../lib/gcc/arm-none-eabi/8.2.1/../../../../arm-none-eabi/lib/thumb/v7e-m+fp/hard\libcr_c.a(memcpy.o)
 .text          0x00000000        0x0 c:/nxp/mcuxpressoide_11.0.0_2516/ide/plugins/com.nxp.mcuxpresso.tools.win32_11.0.0.201905131304/tools/bin/../lib/gcc/arm-none-eabi/8.2.1/../../../../arm-none-eabi/lib/thumb/v7e-m+fp/hard\libcr_c.a(__init_alloc.o)
 .data          0x00000000        0x0 c:/nxp/mcuxpressoide_11.0.0_2516/ide/plugins/com.nxp.mcuxpresso.tools.win32_11.0.0.201905131304/tools/bin/../lib/gcc/arm-none-eabi/8.2.1/../../../../arm-none-eabi/lib/thumb/v7e-m+fp/hard\libcr_c.a(__init_alloc.o)
 .bss           0x00000000        0x0 c:/nxp/mcuxpressoide_11.0.0_2516/ide/plugins/com.nxp.mcuxpresso.tools.win32_11.0.0.201905131304/tools/bin/../lib/gcc/arm-none-eabi/8.2.1/../../../../arm-none-eabi/lib/thumb/v7e-m+fp/hard\libcr_c.a(__init_alloc.o)
 .text._init_alloc
                0x00000000       0x14 c:/nxp/mcuxpressoide_11.0.0_2516/ide/plugins/com.nxp.mcuxpresso.tools.win32_11.0.0.201905131304/tools/bin/../lib/gcc/arm-none-eabi/8.2.1/../../../../arm-none-eabi/lib/thumb/v7e-m+fp/hard\libcr_c.a(__init_alloc.o)
 .text          0x00000000        0x0 c:/nxp/mcuxpressoide_11.0.0_2516/ide/plugins/com.nxp.mcuxpresso.tools.win32_11.0.0.201905131304/tools/bin/../lib/gcc/arm-none-eabi/8.2.1/../../../../arm-none-eabi/lib/thumb/v7e-m+fp/hard\libcr_c.a(_cr_sbrk.o)
 .data          0x00000000        0x0 c:/nxp/mcuxpressoide_11.0.0_2516/ide/plugins/com.nxp.mcuxpresso.tools.win32_11.0.0.201905131304/tools/bin/../lib/gcc/arm-none-eabi/8.2.1/../../../../arm-none-eabi/lib/thumb/v7e-m+fp/hard\libcr_c.a(_cr_sbrk.o)
 .bss           0x00000000        0x0 c:/nxp/mcuxpressoide_11.0.0_2516/ide/plugins/com.nxp.mcuxpresso.tools.win32_11.0.0.201905131304/tools/bin/../lib/gcc/arm-none-eabi/8.2.1/../../../../arm-none-eabi/lib/thumb/v7e-m+fp/hard\libcr_c.a(_cr_sbrk.o)
 .text          0x00000000        0x0 c:/nxp/mcuxpressoide_11.0.0_2516/ide/plugins/com.nxp.mcuxpresso.tools.win32_11.0.0.201905131304/tools/bin/../lib/gcc/arm-none-eabi/8.2.1/../../../../arm-none-eabi/lib/thumb/v7e-m+fp/hard\libcr_c.a(_fdopen.o)
 .data          0x00000000        0x0 c:/nxp/mcuxpressoide_11.0.0_2516/ide/plugins/com.nxp.mcuxpresso.tools.win32_11.0.0.201905131304/tools/bin/../lib/gcc/arm-none-eabi/8.2.1/../../../../arm-none-eabi/lib/thumb/v7e-m+fp/hard\libcr_c.a(_fdopen.o)
 .bss           0x00000000        0x0 c:/nxp/mcuxpressoide_11.0.0_2516/ide/plugins/com.nxp.mcuxpresso.tools.win32_11.0.0.201905131304/tools/bin/../lib/gcc/arm-none-eabi/8.2.1/../../../../arm-none-eabi/lib/thumb/v7e-m+fp/hard\libcr_c.a(_fdopen.o)
 .text          0x00000000        0x0 c:/nxp/mcuxpressoide_11.0.0_2516/ide/plugins/com.nxp.mcuxpresso.tools.win32_11.0.0.201905131304/tools/bin/../lib/gcc/arm-none-eabi/8.2.1/../../../../arm-none-eabi/lib/thumb/v7e-m+fp/hard\libcr_c.a(errno.o)
 .data          0x00000000        0x0 c:/nxp/mcuxpressoide_11.0.0_2516/ide/plugins/com.nxp.mcuxpresso.tools.win32_11.0.0.201905131304/tools/bin/../lib/gcc/arm-none-eabi/8.2.1/../../../../arm-none-eabi/lib/thumb/v7e-m+fp/hard\libcr_c.a(errno.o)
 .bss           0x00000000        0x0 c:/nxp/mcuxpressoide_11.0.0_2516/ide/plugins/com.nxp.mcuxpresso.tools.win32_11.0.0.201905131304/tools/bin/../lib/gcc/arm-none-eabi/8.2.1/../../../../arm-none-eabi/lib/thumb/v7e-m+fp/hard\libcr_c.a(errno.o)
 .text          0x00000000        0x0 c:/nxp/mcuxpressoide_11.0.0_2516/ide/plugins/com.nxp.mcuxpresso.tools.win32_11.0.0.201905131304/tools/bin/../lib/gcc/arm-none-eabi/8.2.1/../../../../arm-none-eabi/lib/thumb/v7e-m+fp/hard\libcr_c.a(fclose.o)
 .data          0x00000000        0x0 c:/nxp/mcuxpressoide_11.0.0_2516/ide/plugins/com.nxp.mcuxpresso.tools.win32_11.0.0.201905131304/tools/bin/../lib/gcc/arm-none-eabi/8.2.1/../../../../arm-none-eabi/lib/thumb/v7e-m+fp/hard\libcr_c.a(fclose.o)
 .bss           0x00000000        0x0 c:/nxp/mcuxpressoide_11.0.0_2516/ide/plugins/com.nxp.mcuxpresso.tools.win32_11.0.0.201905131304/tools/bin/../lib/gcc/arm-none-eabi/8.2.1/../../../../arm-none-eabi/lib/thumb/v7e-m+fp/hard\libcr_c.a(fclose.o)
 .text          0x00000000        0x0 c:/nxp/mcuxpressoide_11.0.0_2516/ide/plugins/com.nxp.mcuxpresso.tools.win32_11.0.0.201905131304/tools/bin/../lib/gcc/arm-none-eabi/8.2.1/../../../../arm-none-eabi/lib/thumb/v7e-m+fp/hard\libcr_c.a(fflush.o)
 .data          0x00000000        0x0 c:/nxp/mcuxpressoide_11.0.0_2516/ide/plugins/com.nxp.mcuxpresso.tools.win32_11.0.0.201905131304/tools/bin/../lib/gcc/arm-none-eabi/8.2.1/../../../../arm-none-eabi/lib/thumb/v7e-m+fp/hard\libcr_c.a(fflush.o)
 .bss           0x00000000        0x0 c:/nxp/mcuxpressoide_11.0.0_2516/ide/plugins/com.nxp.mcuxpresso.tools.win32_11.0.0.201905131304/tools/bin/../lib/gcc/arm-none-eabi/8.2.1/../../../../arm-none-eabi/lib/thumb/v7e-m+fp/hard\libcr_c.a(fflush.o)
 .text          0x00000000        0x0 c:/nxp/mcuxpressoide_11.0.0_2516/ide/plugins/com.nxp.mcuxpresso.tools.win32_11.0.0.201905131304/tools/bin/../lib/gcc/arm-none-eabi/8.2.1/../../../../arm-none-eabi/lib/thumb/v7e-m+fp/hard\libcr_c.a(remove.o)
 .data          0x00000000        0x0 c:/nxp/mcuxpressoide_11.0.0_2516/ide/plugins/com.nxp.mcuxpresso.tools.win32_11.0.0.201905131304/tools/bin/../lib/gcc/arm-none-eabi/8.2.1/../../../../arm-none-eabi/lib/thumb/v7e-m+fp/hard\libcr_c.a(remove.o)
 .bss           0x00000000        0x0 c:/nxp/mcuxpressoide_11.0.0_2516/ide/plugins/com.nxp.mcuxpresso.tools.win32_11.0.0.201905131304/tools/bin/../lib/gcc/arm-none-eabi/8.2.1/../../../../arm-none-eabi/lib/thumb/v7e-m+fp/hard\libcr_c.a(remove.o)
 .text.rename   0x00000000       0x28 c:/nxp/mcuxpressoide_11.0.0_2516/ide/plugins/com.nxp.mcuxpresso.tools.win32_11.0.0.201905131304/tools/bin/../lib/gcc/arm-none-eabi/8.2.1/../../../../arm-none-eabi/lib/thumb/v7e-m+fp/hard\libcr_c.a(remove.o)
 .text          0x00000000        0x0 c:/nxp/mcuxpressoide_11.0.0_2516/ide/plugins/com.nxp.mcuxpresso.tools.win32_11.0.0.201905131304/tools/bin/../lib/gcc/arm-none-eabi/8.2.1/../../../../arm-none-eabi/lib/thumb/v7e-m+fp/hard\libcr_c.a(_cr_check_heap.o)
 .data          0x00000000        0x0 c:/nxp/mcuxpressoide_11.0.0_2516/ide/plugins/com.nxp.mcuxpresso.tools.win32_11.0.0.201905131304/tools/bin/../lib/gcc/arm-none-eabi/8.2.1/../../../../arm-none-eabi/lib/thumb/v7e-m+fp/hard\libcr_c.a(_cr_check_heap.o)
 .bss           0x00000000        0x0 c:/nxp/mcuxpressoide_11.0.0_2516/ide/plugins/com.nxp.mcuxpresso.tools.win32_11.0.0.201905131304/tools/bin/../lib/gcc/arm-none-eabi/8.2.1/../../../../arm-none-eabi/lib/thumb/v7e-m+fp/hard\libcr_c.a(_cr_check_heap.o)
 .text          0x00000000        0x0 c:/nxp/mcuxpressoide_11.0.0_2516/ide/plugins/com.nxp.mcuxpresso.tools.win32_11.0.0.201905131304/tools/bin/../lib/gcc/arm-none-eabi/8.2.1/../../../../arm-none-eabi/lib/thumb/v7e-m+fp/hard\libcr_c.a(_do_fflush.o)
 .data          0x00000000        0x0 c:/nxp/mcuxpressoide_11.0.0_2516/ide/plugins/com.nxp.mcuxpresso.tools.win32_11.0.0.201905131304/tools/bin/../lib/gcc/arm-none-eabi/8.2.1/../../../../arm-none-eabi/lib/thumb/v7e-m+fp/hard\libcr_c.a(_do_fflush.o)
 .bss           0x00000000        0x0 c:/nxp/mcuxpressoide_11.0.0_2516/ide/plugins/com.nxp.mcuxpresso.tools.win32_11.0.0.201905131304/tools/bin/../lib/gcc/arm-none-eabi/8.2.1/../../../../arm-none-eabi/lib/thumb/v7e-m+fp/hard\libcr_c.a(_do_fflush.o)
 .text          0x00000000        0x0 c:/nxp/mcuxpressoide_11.0.0_2516/ide/plugins/com.nxp.mcuxpresso.tools.win32_11.0.0.201905131304/tools/bin/../lib/gcc/arm-none-eabi/8.2.1/thumb/v7e-m+fp/hard\libcr_eabihelpers.a(double.o)
 .data          0x00000000        0x0 c:/nxp/mcuxpressoide_11.0.0_2516/ide/plugins/com.nxp.mcuxpresso.tools.win32_11.0.0.201905131304/tools/bin/../lib/gcc/arm-none-eabi/8.2.1/thumb/v7e-m+fp/hard\libcr_eabihelpers.a(double.o)
 .bss           0x00000000        0x0 c:/nxp/mcuxpressoide_11.0.0_2516/ide/plugins/com.nxp.mcuxpresso.tools.win32_11.0.0.201905131304/tools/bin/../lib/gcc/arm-none-eabi/8.2.1/thumb/v7e-m+fp/hard\libcr_eabihelpers.a(double.o)
 .text.__aeabi_drsub
                0x00000000       0x18 c:/nxp/mcuxpressoide_11.0.0_2516/ide/plugins/com.nxp.mcuxpresso.tools.win32_11.0.0.201905131304/tools/bin/../lib/gcc/arm-none-eabi/8.2.1/thumb/v7e-m+fp/hard\libcr_eabihelpers.a(double.o)
 .text.__aeabi_dneg
                0x00000000        0xe c:/nxp/mcuxpressoide_11.0.0_2516/ide/plugins/com.nxp.mcuxpresso.tools.win32_11.0.0.201905131304/tools/bin/../lib/gcc/arm-none-eabi/8.2.1/thumb/v7e-m+fp/hard\libcr_eabihelpers.a(double.o)
 .text.__aeabi_d2f
                0x00000000       0x50 c:/nxp/mcuxpressoide_11.0.0_2516/ide/plugins/com.nxp.mcuxpresso.tools.win32_11.0.0.201905131304/tools/bin/../lib/gcc/arm-none-eabi/8.2.1/thumb/v7e-m+fp/hard\libcr_eabihelpers.a(double.o)
 .text.__aeabi_d2uiz
                0x00000000       0x32 c:/nxp/mcuxpressoide_11.0.0_2516/ide/plugins/com.nxp.mcuxpresso.tools.win32_11.0.0.201905131304/tools/bin/../lib/gcc/arm-none-eabi/8.2.1/thumb/v7e-m+fp/hard\libcr_eabihelpers.a(double.o)
 .text.__aeabi_d2lz
                0x00000000       0x6e c:/nxp/mcuxpressoide_11.0.0_2516/ide/plugins/com.nxp.mcuxpresso.tools.win32_11.0.0.201905131304/tools/bin/../lib/gcc/arm-none-eabi/8.2.1/thumb/v7e-m+fp/hard\libcr_eabihelpers.a(double.o)
 .text.__aeabi_d2ulz
                0x00000000       0x56 c:/nxp/mcuxpressoide_11.0.0_2516/ide/plugins/com.nxp.mcuxpresso.tools.win32_11.0.0.201905131304/tools/bin/../lib/gcc/arm-none-eabi/8.2.1/thumb/v7e-m+fp/hard\libcr_eabihelpers.a(double.o)
 .text.__bhs_ul2d
                0x00000000       0x8a c:/nxp/mcuxpressoide_11.0.0_2516/ide/plugins/com.nxp.mcuxpresso.tools.win32_11.0.0.201905131304/tools/bin/../lib/gcc/arm-none-eabi/8.2.1/thumb/v7e-m+fp/hard\libcr_eabihelpers.a(double.o)
 .text.__aeabi_ui2d
                0x00000000        0x8 c:/nxp/mcuxpressoide_11.0.0_2516/ide/plugins/com.nxp.mcuxpresso.tools.win32_11.0.0.201905131304/tools/bin/../lib/gcc/arm-none-eabi/8.2.1/thumb/v7e-m+fp/hard\libcr_eabihelpers.a(double.o)
 .text.__aeabi_l2d
                0x00000000       0x1a c:/nxp/mcuxpressoide_11.0.0_2516/ide/plugins/com.nxp.mcuxpresso.tools.win32_11.0.0.201905131304/tools/bin/../lib/gcc/arm-none-eabi/8.2.1/thumb/v7e-m+fp/hard\libcr_eabihelpers.a(double.o)
 .text.__aeabi_ul2d
                0x00000000        0x8 c:/nxp/mcuxpressoide_11.0.0_2516/ide/plugins/com.nxp.mcuxpresso.tools.win32_11.0.0.201905131304/tools/bin/../lib/gcc/arm-none-eabi/8.2.1/thumb/v7e-m+fp/hard\libcr_eabihelpers.a(double.o)
 .text.__aeabi_dcmplt
                0x00000000       0x56 c:/nxp/mcuxpressoide_11.0.0_2516/ide/plugins/com.nxp.mcuxpresso.tools.win32_11.0.0.201905131304/tools/bin/../lib/gcc/arm-none-eabi/8.2.1/thumb/v7e-m+fp/hard\libcr_eabihelpers.a(double.o)
 .text.__aeabi_dcmpgt
                0x00000000       0x56 c:/nxp/mcuxpressoide_11.0.0_2516/ide/plugins/com.nxp.mcuxpresso.tools.win32_11.0.0.201905131304/tools/bin/../lib/gcc/arm-none-eabi/8.2.1/thumb/v7e-m+fp/hard\libcr_eabihelpers.a(double.o)
 .text.__aeabi_dcmple
                0x00000000       0x56 c:/nxp/mcuxpressoide_11.0.0_2516/ide/plugins/com.nxp.mcuxpresso.tools.win32_11.0.0.201905131304/tools/bin/../lib/gcc/arm-none-eabi/8.2.1/thumb/v7e-m+fp/hard\libcr_eabihelpers.a(double.o)
 .text.__aeabi_dcmpge
                0x00000000       0x5c c:/nxp/mcuxpressoide_11.0.0_2516/ide/plugins/com.nxp.mcuxpresso.tools.win32_11.0.0.201905131304/tools/bin/../lib/gcc/arm-none-eabi/8.2.1/thumb/v7e-m+fp/hard\libcr_eabihelpers.a(double.o)
 .text.__aeabi_dcmpun
                0x00000000       0x1a c:/nxp/mcuxpressoide_11.0.0_2516/ide/plugins/com.nxp.mcuxpresso.tools.win32_11.0.0.201905131304/tools/bin/../lib/gcc/arm-none-eabi/8.2.1/thumb/v7e-m+fp/hard\libcr_eabihelpers.a(double.o)
 .text.__aeabi_cdcmple
                0x00000000       0x2c c:/nxp/mcuxpressoide_11.0.0_2516/ide/plugins/com.nxp.mcuxpresso.tools.win32_11.0.0.201905131304/tools/bin/../lib/gcc/arm-none-eabi/8.2.1/thumb/v7e-m+fp/hard\libcr_eabihelpers.a(double.o)
 .text.__aeabi_cdrcmple
                0x00000000       0x14 c:/nxp/mcuxpressoide_11.0.0_2516/ide/plugins/com.nxp.mcuxpresso.tools.win32_11.0.0.201905131304/tools/bin/../lib/gcc/arm-none-eabi/8.2.1/thumb/v7e-m+fp/hard\libcr_eabihelpers.a(double.o)
 .text          0x00000000        0x0 c:/nxp/mcuxpressoide_11.0.0_2516/ide/plugins/com.nxp.mcuxpresso.tools.win32_11.0.0.201905131304/tools/bin/../lib/gcc/arm-none-eabi/8.2.1/thumb/v7e-m+fp/hard\libcr_eabihelpers.a(memcpy.o)
 .data          0x00000000        0x0 c:/nxp/mcuxpressoide_11.0.0_2516/ide/plugins/com.nxp.mcuxpresso.tools.win32_11.0.0.201905131304/tools/bin/../lib/gcc/arm-none-eabi/8.2.1/thumb/v7e-m+fp/hard\libcr_eabihelpers.a(memcpy.o)
 .bss           0x00000000        0x0 c:/nxp/mcuxpressoide_11.0.0_2516/ide/plugins/com.nxp.mcuxpresso.tools.win32_11.0.0.201905131304/tools/bin/../lib/gcc/arm-none-eabi/8.2.1/thumb/v7e-m+fp/hard\libcr_eabihelpers.a(memcpy.o)
 .text.__aeabi_memcpy
                0x00000000       0x34 c:/nxp/mcuxpressoide_11.0.0_2516/ide/plugins/com.nxp.mcuxpresso.tools.win32_11.0.0.201905131304/tools/bin/../lib/gcc/arm-none-eabi/8.2.1/thumb/v7e-m+fp/hard\libcr_eabihelpers.a(memcpy.o)
 .text.__aeabi_memmove
                0x00000000       0x1c c:/nxp/mcuxpressoide_11.0.0_2516/ide/plugins/com.nxp.mcuxpresso.tools.win32_11.0.0.201905131304/tools/bin/../lib/gcc/arm-none-eabi/8.2.1/thumb/v7e-m+fp/hard\libcr_eabihelpers.a(memcpy.o)
 .text.__aeabi_memclr
                0x00000000        0x8 c:/nxp/mcuxpressoide_11.0.0_2516/ide/plugins/com.nxp.mcuxpresso.tools.win32_11.0.0.201905131304/tools/bin/../lib/gcc/arm-none-eabi/8.2.1/thumb/v7e-m+fp/hard\libcr_eabihelpers.a(memcpy.o)
 .text.__aeabi_memset
                0x00000000        0xa c:/nxp/mcuxpressoide_11.0.0_2516/ide/plugins/com.nxp.mcuxpresso.tools.win32_11.0.0.201905131304/tools/bin/../lib/gcc/arm-none-eabi/8.2.1/thumb/v7e-m+fp/hard\libcr_eabihelpers.a(memcpy.o)
 .text          0x00000000        0x0 c:/nxp/mcuxpressoide_11.0.0_2516/ide/plugins/com.nxp.mcuxpresso.tools.win32_11.0.0.201905131304/tools/bin/../lib/gcc/arm-none-eabi/8.2.1/../../../../arm-none-eabi/lib/thumb/v7e-m+fp/hard\libcr_semihost_nf.a(__sys_close.o)
 .data          0x00000000        0x0 c:/nxp/mcuxpressoide_11.0.0_2516/ide/plugins/com.nxp.mcuxpresso.tools.win32_11.0.0.201905131304/tools/bin/../lib/gcc/arm-none-eabi/8.2.1/../../../../arm-none-eabi/lib/thumb/v7e-m+fp/hard\libcr_semihost_nf.a(__sys_close.o)
 .bss           0x00000000        0x0 c:/nxp/mcuxpressoide_11.0.0_2516/ide/plugins/com.nxp.mcuxpresso.tools.win32_11.0.0.201905131304/tools/bin/../lib/gcc/arm-none-eabi/8.2.1/../../../../arm-none-eabi/lib/thumb/v7e-m+fp/hard\libcr_semihost_nf.a(__sys_close.o)
 .text          0x00000000        0x0 c:/nxp/mcuxpressoide_11.0.0_2516/ide/plugins/com.nxp.mcuxpresso.tools.win32_11.0.0.201905131304/tools/bin/../lib/gcc/arm-none-eabi/8.2.1/../../../../arm-none-eabi/lib/thumb/v7e-m+fp/hard\libcr_semihost_nf.a(__sys_flen.o)
 .data          0x00000000        0x0 c:/nxp/mcuxpressoide_11.0.0_2516/ide/plugins/com.nxp.mcuxpresso.tools.win32_11.0.0.201905131304/tools/bin/../lib/gcc/arm-none-eabi/8.2.1/../../../../arm-none-eabi/lib/thumb/v7e-m+fp/hard\libcr_semihost_nf.a(__sys_flen.o)
 .bss           0x00000000        0x0 c:/nxp/mcuxpressoide_11.0.0_2516/ide/plugins/com.nxp.mcuxpresso.tools.win32_11.0.0.201905131304/tools/bin/../lib/gcc/arm-none-eabi/8.2.1/../../../../arm-none-eabi/lib/thumb/v7e-m+fp/hard\libcr_semihost_nf.a(__sys_flen.o)
 .text          0x00000000        0x0 c:/nxp/mcuxpressoide_11.0.0_2516/ide/plugins/com.nxp.mcuxpresso.tools.win32_11.0.0.201905131304/tools/bin/../lib/gcc/arm-none-eabi/8.2.1/../../../../arm-none-eabi/lib/thumb/v7e-m+fp/hard\libcr_semihost_nf.a(__sys_istty.o)
 .data          0x00000000        0x0 c:/nxp/mcuxpressoide_11.0.0_2516/ide/plugins/com.nxp.mcuxpresso.tools.win32_11.0.0.201905131304/tools/bin/../lib/gcc/arm-none-eabi/8.2.1/../../../../arm-none-eabi/lib/thumb/v7e-m+fp/hard\libcr_semihost_nf.a(__sys_istty.o)
 .bss           0x00000000        0x0 c:/nxp/mcuxpressoide_11.0.0_2516/ide/plugins/com.nxp.mcuxpresso.tools.win32_11.0.0.201905131304/tools/bin/../lib/gcc/arm-none-eabi/8.2.1/../../../../arm-none-eabi/lib/thumb/v7e-m+fp/hard\libcr_semihost_nf.a(__sys_istty.o)
 .text          0x00000000        0x0 c:/nxp/mcuxpressoide_11.0.0_2516/ide/plugins/com.nxp.mcuxpresso.tools.win32_11.0.0.201905131304/tools/bin/../lib/gcc/arm-none-eabi/8.2.1/../../../../arm-none-eabi/lib/thumb/v7e-m+fp/hard\libcr_semihost_nf.a(__sys_remove.o)
 .data          0x00000000        0x0 c:/nxp/mcuxpressoide_11.0.0_2516/ide/plugins/com.nxp.mcuxpresso.tools.win32_11.0.0.201905131304/tools/bin/../lib/gcc/arm-none-eabi/8.2.1/../../../../arm-none-eabi/lib/thumb/v7e-m+fp/hard\libcr_semihost_nf.a(__sys_remove.o)
 .bss           0x00000000        0x0 c:/nxp/mcuxpressoide_11.0.0_2516/ide/plugins/com.nxp.mcuxpresso.tools.win32_11.0.0.201905131304/tools/bin/../lib/gcc/arm-none-eabi/8.2.1/../../../../arm-none-eabi/lib/thumb/v7e-m+fp/hard\libcr_semihost_nf.a(__sys_remove.o)
 .text          0x00000000        0x0 c:/nxp/mcuxpressoide_11.0.0_2516/ide/plugins/com.nxp.mcuxpresso.tools.win32_11.0.0.201905131304/tools/bin/../lib/gcc/arm-none-eabi/8.2.1/../../../../arm-none-eabi/lib/thumb/v7e-m+fp/hard\libcr_semihost_nf.a(__sys_rename.o)
 .data          0x00000000        0x0 c:/nxp/mcuxpressoide_11.0.0_2516/ide/plugins/com.nxp.mcuxpresso.tools.win32_11.0.0.201905131304/tools/bin/../lib/gcc/arm-none-eabi/8.2.1/../../../../arm-none-eabi/lib/thumb/v7e-m+fp/hard\libcr_semihost_nf.a(__sys_rename.o)
 .bss           0x00000000        0x0 c:/nxp/mcuxpressoide_11.0.0_2516/ide/plugins/com.nxp.mcuxpresso.tools.win32_11.0.0.201905131304/tools/bin/../lib/gcc/arm-none-eabi/8.2.1/../../../../arm-none-eabi/lib/thumb/v7e-m+fp/hard\libcr_semihost_nf.a(__sys_rename.o)
 .text.__sys_rename
                0x00000000        0xc c:/nxp/mcuxpressoide_11.0.0_2516/ide/plugins/com.nxp.mcuxpresso.tools.win32_11.0.0.201905131304/tools/bin/../lib/gcc/arm-none-eabi/8.2.1/../../../../arm-none-eabi/lib/thumb/v7e-m+fp/hard\libcr_semihost_nf.a(__sys_rename.o)
 .ARM.attributes
                0x00000000       0x20 c:/nxp/mcuxpressoide_11.0.0_2516/ide/plugins/com.nxp.mcuxpresso.tools.win32_11.0.0.201905131304/tools/bin/../lib/gcc/arm-none-eabi/8.2.1/../../../../arm-none-eabi/lib/thumb/v7e-m+fp/hard\libcr_semihost_nf.a(__sys_rename.o)
 .text          0x00000000        0x0 c:/nxp/mcuxpressoide_11.0.0_2516/ide/plugins/com.nxp.mcuxpresso.tools.win32_11.0.0.201905131304/tools/bin/../lib/gcc/arm-none-eabi/8.2.1/../../../../arm-none-eabi/lib/thumb/v7e-m+fp/hard\libcr_semihost_nf.a(__sys_seek.o)
 .data          0x00000000        0x0 c:/nxp/mcuxpressoide_11.0.0_2516/ide/plugins/com.nxp.mcuxpresso.tools.win32_11.0.0.201905131304/tools/bin/../lib/gcc/arm-none-eabi/8.2.1/../../../../arm-none-eabi/lib/thumb/v7e-m+fp/hard\libcr_semihost_nf.a(__sys_seek.o)
 .bss           0x00000000        0x0 c:/nxp/mcuxpressoide_11.0.0_2516/ide/plugins/com.nxp.mcuxpresso.tools.win32_11.0.0.201905131304/tools/bin/../lib/gcc/arm-none-eabi/8.2.1/../../../../arm-none-eabi/lib/thumb/v7e-m+fp/hard\libcr_semihost_nf.a(__sys_seek.o)
 .text          0x00000000        0x0 c:/nxp/mcuxpressoide_11.0.0_2516/ide/plugins/com.nxp.mcuxpresso.tools.win32_11.0.0.201905131304/tools/bin/../lib/gcc/arm-none-eabi/8.2.1/../../../../arm-none-eabi/lib/thumb/v7e-m+fp/hard\libcr_semihost_nf.a(__sys_tmpnam.o)
 .data          0x00000000        0x0 c:/nxp/mcuxpressoide_11.0.0_2516/ide/plugins/com.nxp.mcuxpresso.tools.win32_11.0.0.201905131304/tools/bin/../lib/gcc/arm-none-eabi/8.2.1/../../../../arm-none-eabi/lib/thumb/v7e-m+fp/hard\libcr_semihost_nf.a(__sys_tmpnam.o)
 .bss           0x00000000        0x0 c:/nxp/mcuxpressoide_11.0.0_2516/ide/plugins/com.nxp.mcuxpresso.tools.win32_11.0.0.201905131304/tools/bin/../lib/gcc/arm-none-eabi/8.2.1/../../../../arm-none-eabi/lib/thumb/v7e-m+fp/hard\libcr_semihost_nf.a(__sys_tmpnam.o)
 .text          0x00000000        0x0 c:/nxp/mcuxpressoide_11.0.0_2516/ide/plugins/com.nxp.mcuxpresso.tools.win32_11.0.0.201905131304/tools/bin/../lib/gcc/arm-none-eabi/8.2.1/../../../../arm-none-eabi/lib/thumb/v7e-m+fp/hard\libcr_semihost_nf.a(__sys_write.o)
 .data          0x00000000        0x0 c:/nxp/mcuxpressoide_11.0.0_2516/ide/plugins/com.nxp.mcuxpresso.tools.win32_11.0.0.201905131304/tools/bin/../lib/gcc/arm-none-eabi/8.2.1/../../../../arm-none-eabi/lib/thumb/v7e-m+fp/hard\libcr_semihost_nf.a(__sys_write.o)
 .bss           0x00000000        0x0 c:/nxp/mcuxpressoide_11.0.0_2516/ide/plugins/com.nxp.mcuxpresso.tools.win32_11.0.0.201905131304/tools/bin/../lib/gcc/arm-none-eabi/8.2.1/../../../../arm-none-eabi/lib/thumb/v7e-m+fp/hard\libcr_semihost_nf.a(__sys_write.o)

Memory Configuration

Name             Origin             Length             Attributes
PROGRAM_FLASH    0x00000000         0x00200000         xr
SRAM_UPPER       0x20000000         0x00030000         xrw
SRAM_LOWER       0x1fff0000         0x00010000         xrw
FLEX_RAM         0x14000000         0x00001000         xrw
*default*        0x00000000         0xffffffff

Linker script and memory map

LOAD ./utilities/fsl_debug_console.o
LOAD ./utilities/fsl_str.o
LOAD ./startup/startup_mk66f18.o
LOAD ./source/MK66FN2M0xxx18_Accelerometer2.o
LOAD ./source/accel.o
LOAD ./source/semihost_hardfault.o
LOAD ./drivers/fsl_clock.o
LOAD ./drivers/fsl_common.o
LOAD ./drivers/fsl_gpio.o
LOAD ./drivers/fsl_i2c.o
LOAD ./drivers/fsl_lpuart.o
LOAD ./drivers/fsl_rtc.o
LOAD ./drivers/fsl_smc.o
LOAD ./drivers/fsl_uart.o
LOAD ./device/system_MK66F18.o
LOAD ./component/uart/uart_adapter.o
LOAD ./component/serial_manager/serial_manager.o
LOAD ./component/serial_manager/serial_port_uart.o
LOAD ./component/lists/generic_list.o
LOAD ./board/boards/board.o
LOAD ./board/boards/clock_config.o
LOAD ./board/boards/peripherals.o
LOAD ./board/boards/pin_mux.o
LOAD ./accel/fsl_fxos.o
START GROUP
LOAD c:/nxp/mcuxpressoide_11.0.0_2516/ide/plugins/com.nxp.mcuxpresso.tools.win32_11.0.0.201905131304/tools/bin/../lib/gcc/arm-none-eabi/8.2.1/../../../../arm-none-eabi/lib/thumb/v7e-m+fp/hard\libcr_semihost_nf.a
LOAD c:/nxp/mcuxpressoide_11.0.0_2516/ide/plugins/com.nxp.mcuxpresso.tools.win32_11.0.0.201905131304/tools/bin/../lib/gcc/arm-none-eabi/8.2.1/../../../../arm-none-eabi/lib/thumb/v7e-m+fp/hard\libcr_c.a
LOAD c:/nxp/mcuxpressoide_11.0.0_2516/ide/plugins/com.nxp.mcuxpresso.tools.win32_11.0.0.201905131304/tools/bin/../lib/gcc/arm-none-eabi/8.2.1/thumb/v7e-m+fp/hard\libcr_eabihelpers.a
LOAD c:/nxp/mcuxpressoide_11.0.0_2516/ide/plugins/com.nxp.mcuxpresso.tools.win32_11.0.0.201905131304/tools/bin/../lib/gcc/arm-none-eabi/8.2.1/thumb/v7e-m+fp/hard\libgcc.a
END GROUP
                0x00000000                __base_PROGRAM_FLASH = 0x0
                0x00000000                __base_Flash = 0x0
                0x00200000                __top_PROGRAM_FLASH = 0x200000
                0x00200000                __top_Flash = 0x200000
                0x20000000                __base_SRAM_UPPER = 0x20000000
                0x20000000                __base_RAM = 0x20000000
                0x20030000                __top_SRAM_UPPER = 0x20030000
                0x20030000                __top_RAM = 0x20030000
                0x1fff0000                __base_SRAM_LOWER = 0x1fff0000
                0x1fff0000                __base_RAM2 = 0x1fff0000
                0x20000000                __top_SRAM_LOWER = 0x20000000
                0x20000000                __top_RAM2 = 0x20000000
                0x14000000                __base_FLEX_RAM = 0x14000000
                0x14000000                __base_RAM3 = 0x14000000
                0x14001000                __top_FLEX_RAM = 0x14001000
                0x14001000                __top_RAM3 = 0x14001000

.text           0x00000000     0x7190
 FILL mask 0xff
                0x00000000                __vectors_start__ = ABSOLUTE (.)
 *(SORT_BY_ALIGNMENT(.isr_vector))
 .isr_vector    0x00000000      0x1d0 ./startup/startup_mk66f18.o
                0x00000000                g_pfnVectors
                0x00000000                __Vectors
                0x000001d0                . = ALIGN (0x4)
                0x000001d0                __section_table_start = .
                0x000001d0                __data_section_table = .
                0x000001d0        0x4 LONG 0x7190 LOADADDR (.data)
                0x000001d4        0x4 LONG 0x20000000 ADDR (.data)
                0x000001d8        0x4 LONG 0x10 SIZEOF (.data)
                0x000001dc        0x4 LONG 0x7190 LOADADDR (.data_RAM2)
                0x000001e0        0x4 LONG 0x1fff0000 ADDR (.data_RAM2)
                0x000001e4        0x4 LONG 0x0 SIZEOF (.data_RAM2)
                0x000001e8        0x4 LONG 0x7190 LOADADDR (.data_RAM3)
                0x000001ec        0x4 LONG 0x14000000 ADDR (.data_RAM3)
                0x000001f0        0x4 LONG 0x0 SIZEOF (.data_RAM3)
                0x000001f4                __data_section_table_end = .
                0x000001f4                __bss_section_table = .
                0x000001f4        0x4 LONG 0x20000010 ADDR (.bss)
                0x000001f8        0x4 LONG 0x128 SIZEOF (.bss)
                0x000001fc        0x4 LONG 0x1fff0000 ADDR (.bss_RAM2)
                0x00000200        0x4 LONG 0x0 SIZEOF (.bss_RAM2)
                0x00000204        0x4 LONG 0x14000000 ADDR (.bss_RAM3)
                0x00000208        0x4 LONG 0x0 SIZEOF (.bss_RAM3)
                0x0000020c                __bss_section_table_end = .
                0x0000020c                __section_table_end = .
 *(SORT_BY_ALIGNMENT(.after_vectors*))
 .after_vectors.reset
                0x0000020c       0x4c ./startup/startup_mk66f18.o
                0x0000020c                ResetISR
 .after_vectors.init_data
                0x00000258       0x1e ./startup/startup_mk66f18.o
                0x00000258                data_init
 .after_vectors.init_bss
                0x00000276       0x12 ./startup/startup_mk66f18.o
                0x00000276                bss_init
 .after_vectors
                0x00000288       0x14 ./startup/startup_mk66f18.o
                0x00000288                NMI_Handler
                0x0000028c                MemManage_Handler
                0x0000028e                BusFault_Handler
                0x00000290                UsageFault_Handler
                0x00000292                SVC_Handler
                0x00000294                DebugMon_Handler
                0x00000296                PendSV_Handler
                0x00000298                SysTick_Handler
                0x0000029a                DMA_Error_DriverIRQHandler
                0x0000029a                FTM1_DriverIRQHandler
                0x0000029a                FTM2_DriverIRQHandler
                0x0000029a                PIT2_DriverIRQHandler
                0x0000029a                TPM2_DriverIRQHandler
                0x0000029a                SDHC_DriverIRQHandler
                0x0000029a                DMA7_DMA23_DriverIRQHandler
                0x0000029a                I2S0_Tx_DriverIRQHandler
                0x0000029a                TSI0_DriverIRQHandler
                0x0000029a                RTC_Seconds_DriverIRQHandler
                0x0000029a                CMP3_DriverIRQHandler
                0x0000029a                LLWU_DriverIRQHandler
                0x0000029a                MCM_DriverIRQHandler
                0x0000029a                DMA14_DMA30_DriverIRQHandler
                0x0000029a                MCG_DriverIRQHandler
                0x0000029a                ENET_1588_Timer_DriverIRQHandler
                0x0000029a                DAC1_DriverIRQHandler
                0x0000029a                LPTMR0_DriverIRQHandler
                0x0000029a                CMP1_DriverIRQHandler
                0x0000029a                USBHSDCD_DriverIRQHandler
                0x0000029a                DMA0_DMA16_DriverIRQHandler
                0x0000029a                FTM0_DriverIRQHandler
                0x0000029a                IntDefaultHandler
                0x0000029a                USB0_DriverIRQHandler
                0x0000029a                PORTC_DriverIRQHandler
                0x0000029a                DMA2_DMA18_DriverIRQHandler
                0x0000029a                DAC0_DriverIRQHandler
                0x0000029a                CMP2_DriverIRQHandler
                0x0000029a                UART2_ERR_DriverIRQHandler
                0x0000029a                SPI2_DriverIRQHandler
                0x0000029a                LVD_LVW_DriverIRQHandler
                0x0000029a                Reserved84_DriverIRQHandler
                0x0000029a                SPI1_DriverIRQHandler
                0x0000029a                RNG_DriverIRQHandler
                0x0000029a                USBDCD_DriverIRQHandler
                0x0000029a                UART3_ERR_DriverIRQHandler
                0x0000029a                DMA12_DMA28_DriverIRQHandler
                0x0000029a                DMA10_DMA26_DriverIRQHandler
                0x0000029a                UART0_ERR_DriverIRQHandler
                0x0000029a                CMT_DriverIRQHandler
                0x0000029a                Reserved71_DriverIRQHandler
                0x0000029a                ADC1_DriverIRQHandler
                0x0000029a                PORTA_DriverIRQHandler
                0x0000029a                DMA1_DMA17_DriverIRQHandler
                0x0000029a                PIT3_DriverIRQHandler
                0x0000029a                PIT1_DriverIRQHandler
                0x0000029a                TPM1_DriverIRQHandler
                0x0000029a                WDOG_EWM_DriverIRQHandler
                0x0000029a                PDB0_DriverIRQHandler
                0x0000029a                DMA8_DMA24_DriverIRQHandler
                0x0000029a                DMA6_DMA22_DriverIRQHandler
                0x0000029a                RTC_DriverIRQHandler
                0x0000029a                I2S0_Rx_DriverIRQHandler
                0x0000029a                Read_Collision_DriverIRQHandler
                0x0000029a                SWI_DriverIRQHandler
                0x0000029a                UART4_ERR_DriverIRQHandler
                0x0000029a                PORTB_DriverIRQHandler
                0x0000029a                DMA13_DMA29_DriverIRQHandler
                0x0000029a                DMA11_DMA27_DriverIRQHandler
                0x0000029a                DMA4_DMA20_DriverIRQHandler
                0x0000029a                DMA9_DMA25_DriverIRQHandler
                0x0000029a                ENET_Receive_DriverIRQHandler
                0x0000029a                DMA3_DMA19_DriverIRQHandler
                0x0000029a                ENET_Error_DriverIRQHandler
                0x0000029a                Reserved85_DriverIRQHandler
                0x0000029a                SPI0_DriverIRQHandler
                0x0000029a                ADC0_DriverIRQHandler
                0x0000029a                USBHS_DriverIRQHandler
                0x0000029a                CMP0_DriverIRQHandler
                0x0000029a                CAN0_DriverIRQHandler
                0x0000029a                FTM3_DriverIRQHandler
                0x0000029a                DMA5_DMA21_DriverIRQHandler
                0x0000029a                PIT0_DriverIRQHandler
                0x0000029a                DMA15_DMA31_DriverIRQHandler
                0x0000029a                UART1_ERR_DriverIRQHandler
                0x0000029a                ENET_Transmit_DriverIRQHandler
                0x0000029a                PORTD_DriverIRQHandler
                0x0000029a                Reserved46_DriverIRQHandler
                0x0000029a                PORTE_DriverIRQHandler
                0x0000029a                FTFE_DriverIRQHandler
                0x0000029a                CAN1_DriverIRQHandler
                0x00000400                . = 0x400
 *fill*         0x0000029c      0x164 ff
                0x00000400                PROVIDE (__FLASH_CONFIG_START__ = .)
 *(SORT_BY_ALIGNMENT(.FlashConfig))
 .FlashConfig   0x00000400       0x10 ./startup/startup_mk66f18.o
                0x00000400                Flash_Config
                0x00000410                PROVIDE (__FLASH_CONFIG_END__ = .)
                0x00000001                ASSERT (! ((__FLASH_CONFIG_START__ == __FLASH_CONFIG_END__)), Linker Flash Config Support Enabled, but no .FlashConfig section provided within application)
 *(SORT_BY_ALIGNMENT(.text*))
 .text.DbgConsole_Init
                0x00000410      0x104 ./utilities/fsl_debug_console.o
                0x00000410                DbgConsole_Init
 .text.PORTC_IRQHandler
                0x00000514       0x2c ./source/MK66FN2M0xxx18_Accelerometer2.o
                0x00000514                PORTC_IRQHandler
 .text.initializeAccel
                0x00000540       0xac ./source/MK66FN2M0xxx18_Accelerometer2.o
                0x00000540                initializeAccel
 .text.main     0x000005ec      0x210 ./source/MK66FN2M0xxx18_Accelerometer2.o
                0x000005ec                main
 .text.startInitialization
                0x000007fc       0xf0 ./source/accel.o
                0x000007fc                startInitialization
 .text.CLOCK_SetEr32kClock
                0x000008ec       0x30 ./drivers/fsl_clock.o
 .text.CLOCK_SetPllFllSelClock
                0x0000091c       0x58 ./drivers/fsl_clock.o
 .text.CLOCK_GetMcgExtClkFreq
                0x00000974       0x78 ./drivers/fsl_clock.o
 .text.CLOCK_GetFllExtRefClkFreq
                0x000009ec       0xd0 ./drivers/fsl_clock.o
 .text.CLOCK_GetInternalRefClkSelectFreq
                0x00000abc       0x44 ./drivers/fsl_clock.o
 .text.CLOCK_GetFllRefClkFreq
                0x00000b00       0x2c ./drivers/fsl_clock.o
 .text.CLOCK_GetOscRangeFromFreq
                0x00000b2c       0x3c ./drivers/fsl_clock.o
 .text.CLOCK_GetOsc0ErClkUndivFreq
                0x00000b68       0x38 ./drivers/fsl_clock.o
                0x00000b68                CLOCK_GetOsc0ErClkUndivFreq
 .text.CLOCK_GetOsc0ErClkDivFreq
                0x00000ba0       0x48 ./drivers/fsl_clock.o
                0x00000ba0                CLOCK_GetOsc0ErClkDivFreq
 .text.CLOCK_GetEr32kClkFreq
                0x00000be8       0x70 ./drivers/fsl_clock.o
                0x00000be8                CLOCK_GetEr32kClkFreq
 .text.CLOCK_GetPllFllSelClkFreq
                0x00000c58       0x90 ./drivers/fsl_clock.o
                0x00000c58                CLOCK_GetPllFllSelClkFreq
 .text.CLOCK_GetCoreSysClkFreq
                0x00000ce8       0x28 ./drivers/fsl_clock.o
                0x00000ce8                CLOCK_GetCoreSysClkFreq
 .text.CLOCK_GetFreq
                0x00000d10      0x150 ./drivers/fsl_clock.o
                0x00000d10                CLOCK_GetFreq
 .text.CLOCK_SetSimConfig
                0x00000e60       0x44 ./drivers/fsl_clock.o
                0x00000e60                CLOCK_SetSimConfig
 .text.CLOCK_EnableUsbfs0Clock
                0x00000ea4      0x11c ./drivers/fsl_clock.o
                0x00000ea4                CLOCK_EnableUsbfs0Clock
 .text.CLOCK_GetOutClkFreq
                0x00000fc0       0x90 ./drivers/fsl_clock.o
                0x00000fc0                CLOCK_GetOutClkFreq
 .text.CLOCK_GetFllFreq
                0x00001050       0x7c ./drivers/fsl_clock.o
                0x00001050                CLOCK_GetFllFreq
 .text.CLOCK_GetInternalRefClkFreq
                0x000010cc       0x24 ./drivers/fsl_clock.o
                0x000010cc                CLOCK_GetInternalRefClkFreq
 .text.CLOCK_GetPll0Freq
                0x000010f0       0x6c ./drivers/fsl_clock.o
                0x000010f0                CLOCK_GetPll0Freq
 .text.CLOCK_GetExtPllFreq
                0x0000115c       0x18 ./drivers/fsl_clock.o
                0x0000115c                CLOCK_GetExtPllFreq
 .text.CLOCK_SetExtPllFreq
                0x00001174       0x20 ./drivers/fsl_clock.o
                0x00001174                CLOCK_SetExtPllFreq
 .text.CLOCK_SetExternalRefClkConfig
                0x00001194       0x6c ./drivers/fsl_clock.o
                0x00001194                CLOCK_SetExternalRefClkConfig
 .text.CLOCK_SetInternalRefClkConfig
                0x00001200      0x104 ./drivers/fsl_clock.o
                0x00001200                CLOCK_SetInternalRefClkConfig
 .text.CLOCK_EnablePll0
                0x00001304       0x84 ./drivers/fsl_clock.o
                0x00001304                CLOCK_EnablePll0
 .text.CLOCK_InitOsc0
                0x00001388       0x8c ./drivers/fsl_clock.o
                0x00001388                CLOCK_InitOsc0
 .text.CLOCK_SetPbeMode
                0x00001414       0xe8 ./drivers/fsl_clock.o
                0x00001414                CLOCK_SetPbeMode
 .text.CLOCK_BootToPeeMode
                0x000014fc       0x68 ./drivers/fsl_clock.o
                0x000014fc                CLOCK_BootToPeeMode
 .text.GPIO_GetInstance
                0x00001564       0x4c ./drivers/fsl_gpio.o
 .text.GPIO_PinInit
                0x000015b0       0x68 ./drivers/fsl_gpio.o
                0x000015b0                GPIO_PinInit
 .text.GPIO_PortClearInterruptFlags
                0x00001618       0x34 ./drivers/fsl_gpio.o
                0x00001618                GPIO_PortClearInterruptFlags
 .text.I2C_GetInstance
                0x0000164c       0x4c ./drivers/fsl_i2c.o
                0x0000164c                I2C_GetInstance
 .text.I2C_TransferCommonIRQHandler
                0x00001698       0x54 ./drivers/fsl_i2c.o
 .text.I2C_MasterInit
                0x000016ec       0xe4 ./drivers/fsl_i2c.o
                0x000016ec                I2C_MasterInit
 .text.I2C_MasterSetBaudRate
                0x000017d0       0xe4 ./drivers/fsl_i2c.o
                0x000017d0                I2C_MasterSetBaudRate
 .text.I2C_MasterTransferBlocking
                0x000018b4      0x24c ./drivers/fsl_i2c.o
                0x000018b4                I2C_MasterTransferBlocking
 .text.I2C0_DriverIRQHandler
                0x00001b00       0x1c ./drivers/fsl_i2c.o
                0x00001b00                I2C0_DriverIRQHandler
 .text.I2C1_DriverIRQHandler
                0x00001b1c       0x1c ./drivers/fsl_i2c.o
                0x00001b1c                I2C1_DriverIRQHandler
 .text.I2C2_DriverIRQHandler
                0x00001b38       0x1c ./drivers/fsl_i2c.o
                0x00001b38                I2C2_DriverIRQHandler
 .text.I2C3_DriverIRQHandler
                0x00001b54       0x1c ./drivers/fsl_i2c.o
                0x00001b54                I2C3_DriverIRQHandler
 .text.LPUART0_DriverIRQHandler
                0x00001b70       0x28 ./drivers/fsl_lpuart.o
                0x00001b70                LPUART0_DriverIRQHandler
 .text.UART_GetInstance
                0x00001b98       0x54 ./drivers/fsl_uart.o
                0x00001b98                UART_GetInstance
 .text.UART_Init
                0x00001bec      0x2d8 ./drivers/fsl_uart.o
                0x00001bec                UART_Init
 .text.UART_GetDefaultConfig
                0x00001ec4       0x68 ./drivers/fsl_uart.o
                0x00001ec4                UART_GetDefaultConfig
 .text.UART0_DriverIRQHandler
                0x00001f2c       0x28 ./drivers/fsl_uart.o
                0x00001f2c                UART0_DriverIRQHandler
 .text.UART1_DriverIRQHandler
                0x00001f54       0x28 ./drivers/fsl_uart.o
                0x00001f54                UART1_DriverIRQHandler
 .text.UART2_DriverIRQHandler
                0x00001f7c       0x28 ./drivers/fsl_uart.o
                0x00001f7c                UART2_DriverIRQHandler
 .text.UART3_DriverIRQHandler
                0x00001fa4       0x28 ./drivers/fsl_uart.o
                0x00001fa4                UART3_DriverIRQHandler
 .text.UART4_DriverIRQHandler
                0x00001fcc       0x28 ./drivers/fsl_uart.o
                0x00001fcc                UART4_DriverIRQHandler
 .text.SystemInit
                0x00001ff4       0x3c ./device/system_MK66F18.o
                0x00001ff4                SystemInit
 .text.HAL_UartInit
                0x00002030      0x108 ./component/uart/uart_adapter.o
                0x00002030                HAL_UartInit
 .text.SerialManager_Init
                0x00002138       0x74 ./component/serial_manager/serial_manager.o
                0x00002138                SerialManager_Init
 .text.SerialManager_OpenWriteHandle
                0x000021ac       0x58 ./component/serial_manager/serial_manager.o
                0x000021ac                SerialManager_OpenWriteHandle
 .text.SerialManager_OpenReadHandle
                0x00002204       0x60 ./component/serial_manager/serial_manager.o
                0x00002204                SerialManager_OpenReadHandle
 .text.Serial_UartInit
                0x00002264       0x80 ./component/serial_manager/serial_port_uart.o
                0x00002264                Serial_UartInit
 .text.BOARD_Accel_I2C_Send
                0x000022e4       0x40 ./board/boards/board.o
                0x000022e4                BOARD_Accel_I2C_Send
 .text.BOARD_Accel_I2C_Receive
                0x00002324       0x38 ./board/boards/board.o
                0x00002324                BOARD_Accel_I2C_Receive
 .text.CLOCK_SetSdhc0Clock
                0x0000235c       0x3c ./board/boards/clock_config.o
 .text.CLOCK_SetEnetTime0Clock
                0x00002398       0x3c ./board/boards/clock_config.o
 .text.CLOCK_SetRmii0Clock
                0x000023d4       0x3c ./board/boards/clock_config.o
 .text.CLOCK_SetLpuartClock
                0x00002410       0x3c ./board/boards/clock_config.o
 .text.CLOCK_SetTpmClock
                0x0000244c       0x3c ./board/boards/clock_config.o
 .text.CLOCK_SetTraceClock
                0x00002488       0x58 ./board/boards/clock_config.o
 .text.CLOCK_SetClkOutClock
                0x000024e0       0x38 ./board/boards/clock_config.o
 .text.CLOCK_SetRtcClkOutClock
                0x00002518       0x3c ./board/boards/clock_config.o
 .text.CLOCK_SetSimSafeDivs
                0x00002554       0x24 ./board/boards/clock_config.o
 .text.CLOCK_SetXtal0Freq
                0x00002578       0x20 ./board/boards/clock_config.o
 .text.CLOCK_SetXtal32Freq
                0x00002598       0x20 ./board/boards/clock_config.o
 .text.CLOCK_CONFIG_SetRtcClock
                0x000025b8       0x84 ./board/boards/clock_config.o
 .text.CLOCK_CONFIG_EnableUsbhs0PhyPllClock
                0x0000263c       0xfc ./board/boards/clock_config.o
 .text.CLOCK_CONFIG_EnableUsbhs0PfdClock
                0x00002738       0xb4 ./board/boards/clock_config.o
 .text.CLOCK_CONFIG_SetUsbSlowClock
                0x000027ec       0x3c ./board/boards/clock_config.o
 .text.CLOCK_CONFIG_SetFllExtRefDiv
                0x00002828       0x3c ./board/boards/clock_config.o
 .text.BOARD_BootClockHSRUN
                0x00002864       0xe0 ./board/boards/clock_config.o
                0x00002864                BOARD_BootClockHSRUN
 .text.__NVIC_EnableIRQ
                0x00002944       0x3c ./board/boards/peripherals.o
 .text.ACCEL_init
                0x00002980       0x24 ./board/boards/peripherals.o
                0x00002980                ACCEL_init
 .text.PORT_SetPinConfig
                0x000029a4       0x38 ./board/boards/pin_mux.o
 .text.BOARD_InitPins
                0x000029dc       0x30 ./board/boards/pin_mux.o
                0x000029dc                BOARD_InitPins
 .text.BOARD_InitACCEL_I2CPins
                0x00002a0c      0x10c ./board/boards/pin_mux.o
                0x00002a0c                BOARD_InitACCEL_I2CPins
 .text.BOARD_InitDEBUG_UARTPins
                0x00002b18       0x6c ./board/boards/pin_mux.o
                0x00002b18                BOARD_InitDEBUG_UARTPins
 .text.FXOS_ReadReg
                0x00002b84       0x60 ./accel/fsl_fxos.o
                0x00002b84                FXOS_ReadReg
 .text.FXOS_WriteReg
                0x00002be4       0x48 ./accel/fsl_fxos.o
                0x00002be4                FXOS_WriteReg
 .text.__assertion_failed
                0x00002c2c       0x4c c:/nxp/mcuxpressoide_11.0.0_2516/ide/plugins/com.nxp.mcuxpresso.tools.win32_11.0.0.201905131304/tools/bin/../lib/gcc/arm-none-eabi/8.2.1/../../../../arm-none-eabi/lib/thumb/v7e-m+fp/hard\libcr_semihost_nf.a(_cr_assert.o)
                0x00002c2c                __assertion_failed
 .text.__sys_appexit
                0x00002c78        0xc c:/nxp/mcuxpressoide_11.0.0_2516/ide/plugins/com.nxp.mcuxpresso.tools.win32_11.0.0.201905131304/tools/bin/../lib/gcc/arm-none-eabi/8.2.1/../../../../arm-none-eabi/lib/thumb/v7e-m+fp/hard\libcr_semihost_nf.a(__sys_appexit.o)
                0x00002c78                __sys_appexit
                0x00002c78                __exit
 .text._Cwritebuf
                0x00002c84       0x6c c:/nxp/mcuxpressoide_11.0.0_2516/ide/plugins/com.nxp.mcuxpresso.tools.win32_11.0.0.201905131304/tools/bin/../lib/gcc/arm-none-eabi/8.2.1/../../../../arm-none-eabi/lib/thumb/v7e-m+fp/hard\libcr_c.a(_writebuf.o)
                0x00002c84                _Cwritebuf
 .text.malloc   0x00002cf0       0xc8 c:/nxp/mcuxpressoide_11.0.0_2516/ide/plugins/com.nxp.mcuxpresso.tools.win32_11.0.0.201905131304/tools/bin/../lib/gcc/arm-none-eabi/8.2.1/../../../../arm-none-eabi/lib/thumb/v7e-m+fp/hard\libcr_c.a(alloc.o)
                0x00002cf0                malloc
 .text._Csys_alloc
                0x00002db8       0x20 c:/nxp/mcuxpressoide_11.0.0_2516/ide/plugins/com.nxp.mcuxpresso.tools.win32_11.0.0.201905131304/tools/bin/../lib/gcc/arm-none-eabi/8.2.1/../../../../arm-none-eabi/lib/thumb/v7e-m+fp/hard\libcr_c.a(alloc.o)
                0x00002db8                _Csys_alloc
 .text.floor    0x00002dd8       0x98 c:/nxp/mcuxpressoide_11.0.0_2516/ide/plugins/com.nxp.mcuxpresso.tools.win32_11.0.0.201905131304/tools/bin/../lib/gcc/arm-none-eabi/8.2.1/../../../../arm-none-eabi/lib/thumb/v7e-m+fp/hard\libcr_c.a(floor.o)
                0x00002dd8                floor
 .text.fseek    0x00002e70      0x100 c:/nxp/mcuxpressoide_11.0.0_2516/ide/plugins/com.nxp.mcuxpresso.tools.win32_11.0.0.201905131304/tools/bin/../lib/gcc/arm-none-eabi/8.2.1/../../../../arm-none-eabi/lib/thumb/v7e-m+fp/hard\libcr_c.a(fseek.o)
                0x00002e70                fseek
 .text.ftell    0x00002f70       0x48 c:/nxp/mcuxpressoide_11.0.0_2516/ide/plugins/com.nxp.mcuxpresso.tools.win32_11.0.0.201905131304/tools/bin/../lib/gcc/arm-none-eabi/8.2.1/../../../../arm-none-eabi/lib/thumb/v7e-m+fp/hard\libcr_c.a(ftell.o)
                0x00002f70                ftell
 .text._initio  0x00002fb8       0x78 c:/nxp/mcuxpressoide_11.0.0_2516/ide/plugins/com.nxp.mcuxpresso.tools.win32_11.0.0.201905131304/tools/bin/../lib/gcc/arm-none-eabi/8.2.1/../../../../arm-none-eabi/lib/thumb/v7e-m+fp/hard\libcr_c.a(initio.o)
                0x00002fb8                _initio
 .text.__vfprintf
                0x00003030      0xbe0 c:/nxp/mcuxpressoide_11.0.0_2516/ide/plugins/com.nxp.mcuxpresso.tools.win32_11.0.0.201905131304/tools/bin/../lib/gcc/arm-none-eabi/8.2.1/../../../../arm-none-eabi/lib/thumb/v7e-m+fp/hard\libcr_c.a(printf.o)
                0x00003030                __vfprintf
 .text._vsnprintf
                0x00003c10       0x68 c:/nxp/mcuxpressoide_11.0.0_2516/ide/plugins/com.nxp.mcuxpresso.tools.win32_11.0.0.201905131304/tools/bin/../lib/gcc/arm-none-eabi/8.2.1/../../../../arm-none-eabi/lib/thumb/v7e-m+fp/hard\libcr_c.a(printf.o)
                0x00003c10                _vsnprintf
 .text._printf  0x00003c78       0x54 c:/nxp/mcuxpressoide_11.0.0_2516/ide/plugins/com.nxp.mcuxpresso.tools.win32_11.0.0.201905131304/tools/bin/../lib/gcc/arm-none-eabi/8.2.1/../../../../arm-none-eabi/lib/thumb/v7e-m+fp/hard\libcr_c.a(printf.o)
                0x00003c78                _printf
 .text.setvbuf  0x00003ccc       0x40 c:/nxp/mcuxpressoide_11.0.0_2516/ide/plugins/com.nxp.mcuxpresso.tools.win32_11.0.0.201905131304/tools/bin/../lib/gcc/arm-none-eabi/8.2.1/../../../../arm-none-eabi/lib/thumb/v7e-m+fp/hard\libcr_c.a(setvbuf.o)
                0x00003ccc                setvbuf
 .text._sbrk    0x00003d0c       0x3c c:/nxp/mcuxpressoide_11.0.0_2516/ide/plugins/com.nxp.mcuxpresso.tools.win32_11.0.0.201905131304/tools/bin/../lib/gcc/arm-none-eabi/8.2.1/../../../../arm-none-eabi/lib/thumb/v7e-m+fp/hard\libcr_c.a(_cr_sbrk.o)
                0x00003d0c                _sbrk
 .text.fflush   0x00003d48       0x44 c:/nxp/mcuxpressoide_11.0.0_2516/ide/plugins/com.nxp.mcuxpresso.tools.win32_11.0.0.201905131304/tools/bin/../lib/gcc/arm-none-eabi/8.2.1/../../../../arm-none-eabi/lib/thumb/v7e-m+fp/hard\libcr_c.a(fflush.o)
                0x00003d48                fflush
 .text.__check_heap_overflow
                0x00003d8c       0x18 c:/nxp/mcuxpressoide_11.0.0_2516/ide/plugins/com.nxp.mcuxpresso.tools.win32_11.0.0.201905131304/tools/bin/../lib/gcc/arm-none-eabi/8.2.1/../../../../arm-none-eabi/lib/thumb/v7e-m+fp/hard\libcr_c.a(_cr_check_heap.o)
                0x00003d8c                __check_heap_overflow
 .text.__aeabi_dmul
                0x00003da4      0x114 c:/nxp/mcuxpressoide_11.0.0_2516/ide/plugins/com.nxp.mcuxpresso.tools.win32_11.0.0.201905131304/tools/bin/../lib/gcc/arm-none-eabi/8.2.1/thumb/v7e-m+fp/hard\libcr_eabihelpers.a(double.o)
                0x00003da4                __aeabi_dmul
 .text.__aeabi_ddiv
                0x00003eb8      0x150 c:/nxp/mcuxpressoide_11.0.0_2516/ide/plugins/com.nxp.mcuxpresso.tools.win32_11.0.0.201905131304/tools/bin/../lib/gcc/arm-none-eabi/8.2.1/thumb/v7e-m+fp/hard\libcr_eabihelpers.a(double.o)
                0x00003eb8                __aeabi_ddiv
 .text.__aeabi_dsub
                0x00004008      0x1ac c:/nxp/mcuxpressoide_11.0.0_2516/ide/plugins/com.nxp.mcuxpresso.tools.win32_11.0.0.201905131304/tools/bin/../lib/gcc/arm-none-eabi/8.2.1/thumb/v7e-m+fp/hard\libcr_eabihelpers.a(double.o)
                0x00004008                __aeabi_dsub
 .text.__aeabi_dadd
                0x000041b4      0x114 c:/nxp/mcuxpressoide_11.0.0_2516/ide/plugins/com.nxp.mcuxpresso.tools.win32_11.0.0.201905131304/tools/bin/../lib/gcc/arm-none-eabi/8.2.1/thumb/v7e-m+fp/hard\libcr_eabihelpers.a(double.o)
                0x000041b4                __aeabi_dadd
 .text.DMA0_DMA16_IRQHandler
                0x000042c8        0x8 ./startup/startup_mk66f18.o
                0x000042c8                DMA0_DMA16_IRQHandler
 .text.DMA1_DMA17_IRQHandler
                0x000042d0        0x8 ./startup/startup_mk66f18.o
                0x000042d0                DMA1_DMA17_IRQHandler
 .text.DMA2_DMA18_IRQHandler
                0x000042d8        0x8 ./startup/startup_mk66f18.o
                0x000042d8                DMA2_DMA18_IRQHandler
 .text.DMA3_DMA19_IRQHandler
                0x000042e0        0x8 ./startup/startup_mk66f18.o
                0x000042e0                DMA3_DMA19_IRQHandler
 .text.DMA4_DMA20_IRQHandler
                0x000042e8        0x8 ./startup/startup_mk66f18.o
                0x000042e8                DMA4_DMA20_IRQHandler
 .text.DMA5_DMA21_IRQHandler
                0x000042f0        0x8 ./startup/startup_mk66f18.o
                0x000042f0                DMA5_DMA21_IRQHandler
 .text.DMA6_DMA22_IRQHandler
                0x000042f8        0x8 ./startup/startup_mk66f18.o
                0x000042f8                DMA6_DMA22_IRQHandler
 .text.DMA7_DMA23_IRQHandler
                0x00004300        0x8 ./startup/startup_mk66f18.o
                0x00004300                DMA7_DMA23_IRQHandler
 .text.DMA8_DMA24_IRQHandler
                0x00004308        0x8 ./startup/startup_mk66f18.o
                0x00004308                DMA8_DMA24_IRQHandler
 .text.DMA9_DMA25_IRQHandler
                0x00004310        0x8 ./startup/startup_mk66f18.o
                0x00004310                DMA9_DMA25_IRQHandler
 .text.DMA10_DMA26_IRQHandler
                0x00004318        0x8 ./startup/startup_mk66f18.o
                0x00004318                DMA10_DMA26_IRQHandler
 .text.DMA11_DMA27_IRQHandler
                0x00004320        0x8 ./startup/startup_mk66f18.o
                0x00004320                DMA11_DMA27_IRQHandler
 .text.DMA12_DMA28_IRQHandler
                0x00004328        0x8 ./startup/startup_mk66f18.o
                0x00004328                DMA12_DMA28_IRQHandler
 .text.DMA13_DMA29_IRQHandler
                0x00004330        0x8 ./startup/startup_mk66f18.o
                0x00004330                DMA13_DMA29_IRQHandler
 .text.DMA14_DMA30_IRQHandler
                0x00004338        0x8 ./startup/startup_mk66f18.o
                0x00004338                DMA14_DMA30_IRQHandler
 .text.DMA15_DMA31_IRQHandler
                0x00004340        0x8 ./startup/startup_mk66f18.o
                0x00004340                DMA15_DMA31_IRQHandler
 .text.DMA_Error_IRQHandler
                0x00004348        0x8 ./startup/startup_mk66f18.o
                0x00004348                DMA_Error_IRQHandler
 .text.MCM_IRQHandler
                0x00004350        0x8 ./startup/startup_mk66f18.o
                0x00004350                MCM_IRQHandler
 .text.FTFE_IRQHandler
                0x00004358        0x8 ./startup/startup_mk66f18.o
                0x00004358                FTFE_IRQHandler
 .text.Read_Collision_IRQHandler
                0x00004360        0x8 ./startup/startup_mk66f18.o
                0x00004360                Read_Collision_IRQHandler
 .text.LVD_LVW_IRQHandler
                0x00004368        0x8 ./startup/startup_mk66f18.o
                0x00004368                LVD_LVW_IRQHandler
 .text.LLWU_IRQHandler
                0x00004370        0x8 ./startup/startup_mk66f18.o
                0x00004370                LLWU_IRQHandler
 .text.WDOG_EWM_IRQHandler
                0x00004378        0x8 ./startup/startup_mk66f18.o
                0x00004378                WDOG_EWM_IRQHandler
 .text.RNG_IRQHandler
                0x00004380        0x8 ./startup/startup_mk66f18.o
                0x00004380                RNG_IRQHandler
 .text.I2C0_IRQHandler
                0x00004388        0x8 ./startup/startup_mk66f18.o
                0x00004388                I2C0_IRQHandler
 .text.I2C1_IRQHandler
                0x00004390        0x8 ./startup/startup_mk66f18.o
                0x00004390                I2C1_IRQHandler
 .text.SPI0_IRQHandler
                0x00004398        0x8 ./startup/startup_mk66f18.o
                0x00004398                SPI0_IRQHandler
 .text.SPI1_IRQHandler
                0x000043a0        0x8 ./startup/startup_mk66f18.o
                0x000043a0                SPI1_IRQHandler
 .text.I2S0_Tx_IRQHandler
                0x000043a8        0x8 ./startup/startup_mk66f18.o
                0x000043a8                I2S0_Tx_IRQHandler
 .text.I2S0_Rx_IRQHandler
                0x000043b0        0x8 ./startup/startup_mk66f18.o
                0x000043b0                I2S0_Rx_IRQHandler
 .text.Reserved46_IRQHandler
                0x000043b8        0x8 ./startup/startup_mk66f18.o
                0x000043b8                Reserved46_IRQHandler
 .text.UART0_RX_TX_IRQHandler
                0x000043c0        0x8 ./startup/startup_mk66f18.o
                0x000043c0                UART0_RX_TX_IRQHandler
 .text.UART0_ERR_IRQHandler
                0x000043c8        0x8 ./startup/startup_mk66f18.o
                0x000043c8                UART0_ERR_IRQHandler
 .text.UART1_RX_TX_IRQHandler
                0x000043d0        0x8 ./startup/startup_mk66f18.o
                0x000043d0                UART1_RX_TX_IRQHandler
 .text.UART1_ERR_IRQHandler
                0x000043d8        0x8 ./startup/startup_mk66f18.o
                0x000043d8                UART1_ERR_IRQHandler
 .text.UART2_RX_TX_IRQHandler
                0x000043e0        0x8 ./startup/startup_mk66f18.o
                0x000043e0                UART2_RX_TX_IRQHandler
 .text.UART2_ERR_IRQHandler
                0x000043e8        0x8 ./startup/startup_mk66f18.o
                0x000043e8                UART2_ERR_IRQHandler
 .text.UART3_RX_TX_IRQHandler
                0x000043f0        0x8 ./startup/startup_mk66f18.o
                0x000043f0                UART3_RX_TX_IRQHandler
 .text.UART3_ERR_IRQHandler
                0x000043f8        0x8 ./startup/startup_mk66f18.o
                0x000043f8                UART3_ERR_IRQHandler
 .text.ADC0_IRQHandler
                0x00004400        0x8 ./startup/startup_mk66f18.o
                0x00004400                ADC0_IRQHandler
 .text.CMP0_IRQHandler
                0x00004408        0x8 ./startup/startup_mk66f18.o
                0x00004408                CMP0_IRQHandler
 .text.CMP1_IRQHandler
                0x00004410        0x8 ./startup/startup_mk66f18.o
                0x00004410                CMP1_IRQHandler
 .text.FTM0_IRQHandler
                0x00004418        0x8 ./startup/startup_mk66f18.o
                0x00004418                FTM0_IRQHandler
 .text.FTM1_IRQHandler
                0x00004420        0x8 ./startup/startup_mk66f18.o
                0x00004420                FTM1_IRQHandler
 .text.FTM2_IRQHandler
                0x00004428        0x8 ./startup/startup_mk66f18.o
                0x00004428                FTM2_IRQHandler
 .text.CMT_IRQHandler
                0x00004430        0x8 ./startup/startup_mk66f18.o
                0x00004430                CMT_IRQHandler
 .text.RTC_IRQHandler
                0x00004438        0x8 ./startup/startup_mk66f18.o
                0x00004438                RTC_IRQHandler
 .text.RTC_Seconds_IRQHandler
                0x00004440        0x8 ./startup/startup_mk66f18.o
                0x00004440                RTC_Seconds_IRQHandler
 .text.PIT0_IRQHandler
                0x00004448        0x8 ./startup/startup_mk66f18.o
                0x00004448                PIT0_IRQHandler
 .text.PIT1_IRQHandler
                0x00004450        0x8 ./startup/startup_mk66f18.o
                0x00004450                PIT1_IRQHandler
 .text.PIT2_IRQHandler
                0x00004458        0x8 ./startup/startup_mk66f18.o
                0x00004458                PIT2_IRQHandler
 .text.PIT3_IRQHandler
                0x00004460        0x8 ./startup/startup_mk66f18.o
                0x00004460                PIT3_IRQHandler
 .text.PDB0_IRQHandler
                0x00004468        0x8 ./startup/startup_mk66f18.o
                0x00004468                PDB0_IRQHandler
 .text.USB0_IRQHandler
                0x00004470        0x8 ./startup/startup_mk66f18.o
                0x00004470                USB0_IRQHandler
 .text.USBDCD_IRQHandler
                0x00004478        0x8 ./startup/startup_mk66f18.o
                0x00004478                USBDCD_IRQHandler
 .text.Reserved71_IRQHandler
                0x00004480        0x8 ./startup/startup_mk66f18.o
                0x00004480                Reserved71_IRQHandler
 .text.DAC0_IRQHandler
                0x00004488        0x8 ./startup/startup_mk66f18.o
                0x00004488                DAC0_IRQHandler
 .text.MCG_IRQHandler
                0x00004490        0x8 ./startup/startup_mk66f18.o
                0x00004490                MCG_IRQHandler
 .text.LPTMR0_IRQHandler
                0x00004498        0x8 ./startup/startup_mk66f18.o
                0x00004498                LPTMR0_IRQHandler
 .text.PORTA_IRQHandler
                0x000044a0        0x8 ./startup/startup_mk66f18.o
                0x000044a0                PORTA_IRQHandler
 .text.PORTB_IRQHandler
                0x000044a8        0x8 ./startup/startup_mk66f18.o
                0x000044a8                PORTB_IRQHandler
 .text.PORTD_IRQHandler
                0x000044b0        0x8 ./startup/startup_mk66f18.o
                0x000044b0                PORTD_IRQHandler
 .text.PORTE_IRQHandler
                0x000044b8        0x8 ./startup/startup_mk66f18.o
                0x000044b8                PORTE_IRQHandler
 .text.SWI_IRQHandler
                0x000044c0        0x8 ./startup/startup_mk66f18.o
                0x000044c0                SWI_IRQHandler
 .text.SPI2_IRQHandler
                0x000044c8        0x8 ./startup/startup_mk66f18.o
                0x000044c8                SPI2_IRQHandler
 .text.UART4_RX_TX_IRQHandler
                0x000044d0        0x8 ./startup/startup_mk66f18.o
                0x000044d0                UART4_RX_TX_IRQHandler
 .text.UART4_ERR_IRQHandler
                0x000044d8        0x8 ./startup/startup_mk66f18.o
                0x000044d8                UART4_ERR_IRQHandler
 .text.Reserved84_IRQHandler
                0x000044e0        0x8 ./startup/startup_mk66f18.o
                0x000044e0                Reserved84_IRQHandler
 .text.Reserved85_IRQHandler
                0x000044e8        0x8 ./startup/startup_mk66f18.o
                0x000044e8                Reserved85_IRQHandler
 .text.CMP2_IRQHandler
                0x000044f0        0x8 ./startup/startup_mk66f18.o
                0x000044f0                CMP2_IRQHandler
 .text.FTM3_IRQHandler
                0x000044f8        0x8 ./startup/startup_mk66f18.o
                0x000044f8                FTM3_IRQHandler
 .text.DAC1_IRQHandler
                0x00004500        0x8 ./startup/startup_mk66f18.o
                0x00004500                DAC1_IRQHandler
 .text.ADC1_IRQHandler
                0x00004508        0x8 ./startup/startup_mk66f18.o
                0x00004508                ADC1_IRQHandler
 .text.I2C2_IRQHandler
                0x00004510        0x8 ./startup/startup_mk66f18.o
                0x00004510                I2C2_IRQHandler
 .text.CAN0_ORed_Message_buffer_IRQHandler
                0x00004518        0x8 ./startup/startup_mk66f18.o
                0x00004518                CAN0_ORed_Message_buffer_IRQHandler
 .text.CAN0_Bus_Off_IRQHandler
                0x00004520        0x8 ./startup/startup_mk66f18.o
                0x00004520                CAN0_Bus_Off_IRQHandler
 .text.CAN0_Error_IRQHandler
                0x00004528        0x8 ./startup/startup_mk66f18.o
                0x00004528                CAN0_Error_IRQHandler
 .text.CAN0_Tx_Warning_IRQHandler
                0x00004530        0x8 ./startup/startup_mk66f18.o
                0x00004530                CAN0_Tx_Warning_IRQHandler
 .text.CAN0_Rx_Warning_IRQHandler
                0x00004538        0x8 ./startup/startup_mk66f18.o
                0x00004538                CAN0_Rx_Warning_IRQHandler
 .text.CAN0_Wake_Up_IRQHandler
                0x00004540        0x8 ./startup/startup_mk66f18.o
                0x00004540                CAN0_Wake_Up_IRQHandler
 .text.SDHC_IRQHandler
                0x00004548        0x8 ./startup/startup_mk66f18.o
                0x00004548                SDHC_IRQHandler
 .text.ENET_1588_Timer_IRQHandler
                0x00004550        0x8 ./startup/startup_mk66f18.o
                0x00004550                ENET_1588_Timer_IRQHandler
 .text.ENET_Transmit_IRQHandler
                0x00004558        0x8 ./startup/startup_mk66f18.o
                0x00004558                ENET_Transmit_IRQHandler
 .text.ENET_Receive_IRQHandler
                0x00004560        0x8 ./startup/startup_mk66f18.o
                0x00004560                ENET_Receive_IRQHandler
 .text.ENET_Error_IRQHandler
                0x00004568        0x8 ./startup/startup_mk66f18.o
                0x00004568                ENET_Error_IRQHandler
 .text.LPUART0_IRQHandler
                0x00004570        0x8 ./startup/startup_mk66f18.o
                0x00004570                LPUART0_IRQHandler
 .text.TSI0_IRQHandler
                0x00004578        0x8 ./startup/startup_mk66f18.o
                0x00004578                TSI0_IRQHandler
 .text.TPM1_IRQHandler
                0x00004580        0x8 ./startup/startup_mk66f18.o
                0x00004580                TPM1_IRQHandler
 .text.TPM2_IRQHandler
                0x00004588        0x8 ./startup/startup_mk66f18.o
                0x00004588                TPM2_IRQHandler
 .text.USBHSDCD_IRQHandler
                0x00004590        0x8 ./startup/startup_mk66f18.o
                0x00004590                USBHSDCD_IRQHandler
 .text.I2C3_IRQHandler
                0x00004598        0x8 ./startup/startup_mk66f18.o
                0x00004598                I2C3_IRQHandler
 .text.CMP3_IRQHandler
                0x000045a0        0x8 ./startup/startup_mk66f18.o
                0x000045a0                CMP3_IRQHandler
 .text.USBHS_IRQHandler
                0x000045a8        0x8 ./startup/startup_mk66f18.o
                0x000045a8                USBHS_IRQHandler
 .text.CAN1_ORed_Message_buffer_IRQHandler
                0x000045b0        0x8 ./startup/startup_mk66f18.o
                0x000045b0                CAN1_ORed_Message_buffer_IRQHandler
 .text.CAN1_Bus_Off_IRQHandler
                0x000045b8        0x8 ./startup/startup_mk66f18.o
                0x000045b8                CAN1_Bus_Off_IRQHandler
 .text.CAN1_Error_IRQHandler
                0x000045c0        0x8 ./startup/startup_mk66f18.o
                0x000045c0                CAN1_Error_IRQHandler
 .text.CAN1_Tx_Warning_IRQHandler
                0x000045c8        0x8 ./startup/startup_mk66f18.o
                0x000045c8                CAN1_Tx_Warning_IRQHandler
 .text.CAN1_Rx_Warning_IRQHandler
                0x000045d0        0x8 ./startup/startup_mk66f18.o
                0x000045d0                CAN1_Rx_Warning_IRQHandler
 .text.CAN1_Wake_Up_IRQHandler
                0x000045d8        0x8 ./startup/startup_mk66f18.o
                0x000045d8                CAN1_Wake_Up_IRQHandler
 .text.setupOrientationDetection
                0x000045e0       0x18 ./source/MK66FN2M0xxx18_Accelerometer2.o
                0x000045e0                setupOrientationDetection
 .text.finishInitialization
                0x000045f8       0x52 ./source/accel.o
                0x000045f8                finishInitialization
 .text.HardFault_Handler
                0x0000464a       0x2c ./source/semihost_hardfault.o
                0x0000464a                HardFault_Handler
 .text.CLOCK_EnableClock
                0x00004676       0x34 ./drivers/fsl_clock.o
 .text.CLOCK_DisableClock
                0x000046aa       0x38 ./drivers/fsl_clock.o
 .text.OSC_SetExtRefClkConfig
                0x000046e2       0x40 ./drivers/fsl_clock.o
 .text.OSC_SetCapLoad
                0x00004722       0x34 ./drivers/fsl_clock.o
 .text.CLOCK_GetPll0RefFreq
                0x00004756        0xe ./drivers/fsl_clock.o
 .text.CLOCK_GetFixedFreqClkFreq
                0x00004764       0x2e ./drivers/fsl_clock.o
                0x00004764                CLOCK_GetFixedFreqClkFreq
 .text.GPIO_PinWrite
                0x00004792       0x3a ./drivers/fsl_gpio.o
 .text.CLOCK_EnableClock
                0x000047cc       0x34 ./drivers/fsl_i2c.o
 .text.I2C_MasterClearStatusFlags
                0x00004800       0x5a ./drivers/fsl_i2c.o
 .text.I2C_CheckAndClearError
                0x0000485a       0x44 ./drivers/fsl_i2c.o
 .text.I2C_MasterStart
                0x0000489e       0x62 ./drivers/fsl_i2c.o
                0x0000489e                I2C_MasterStart
 .text.I2C_MasterRepeatedStart
                0x00004900       0x9a ./drivers/fsl_i2c.o
                0x00004900                I2C_MasterRepeatedStart
 .text.I2C_MasterStop
                0x0000499a       0x3a ./drivers/fsl_i2c.o
                0x0000499a                I2C_MasterStop
 .text.I2C_MasterGetStatusFlags
                0x000049d4       0x4a ./drivers/fsl_i2c.o
                0x000049d4                I2C_MasterGetStatusFlags
 .text.I2C_MasterWriteBlocking
                0x00004a1e       0xdc ./drivers/fsl_i2c.o
                0x00004a1e                I2C_MasterWriteBlocking
 .text.I2C_MasterReadBlocking
                0x00004afa       0xdc ./drivers/fsl_i2c.o
                0x00004afa                I2C_MasterReadBlocking
 .text.SMC_SetPowerModeHsrun
                0x00004bd6       0x32 ./drivers/fsl_smc.o
                0x00004bd6                SMC_SetPowerModeHsrun
 .text.CLOCK_EnableClock
                0x00004c08       0x34 ./drivers/fsl_uart.o
 .text.UART0_RX_TX_DriverIRQHandler
                0x00004c3c       0x10 ./drivers/fsl_uart.o
                0x00004c3c                UART0_RX_TX_DriverIRQHandler
 .text.UART1_RX_TX_DriverIRQHandler
                0x00004c4c       0x10 ./drivers/fsl_uart.o
                0x00004c4c                UART1_RX_TX_DriverIRQHandler
 .text.UART2_RX_TX_DriverIRQHandler
                0x00004c5c       0x10 ./drivers/fsl_uart.o
                0x00004c5c                UART2_RX_TX_DriverIRQHandler
 .text.UART3_RX_TX_DriverIRQHandler
                0x00004c6c       0x10 ./drivers/fsl_uart.o
                0x00004c6c                UART3_RX_TX_DriverIRQHandler
 .text.UART4_RX_TX_DriverIRQHandler
                0x00004c7c       0x10 ./drivers/fsl_uart.o
                0x00004c7c                UART4_RX_TX_DriverIRQHandler
 .text.SystemInitHook
                0x00004c8c        0xe ./device/system_MK66F18.o
                0x00004c8c                SystemInitHook
 .text.HAL_UartGetStatus
                0x00004c9a       0x22 ./component/uart/uart_adapter.o
 .text.BOARD_InitDebugConsole
                0x00004cbc       0x22 ./board/boards/board.o
                0x00004cbc                BOARD_InitDebugConsole
 .text.BOARD_I2C_Send
                0x00004cde       0x48 ./board/boards/board.o
                0x00004cde                BOARD_I2C_Send
 .text.BOARD_I2C_Receive
                0x00004d26       0x48 ./board/boards/board.o
                0x00004d26                BOARD_I2C_Receive
 .text.CLOCK_EnableClock
                0x00004d6e       0x34 ./board/boards/clock_config.o
 .text.CLOCK_DisableClock
                0x00004da2       0x38 ./board/boards/clock_config.o
 .text.SMC_SetPowerModeProtection
                0x00004dda       0x1e ./board/boards/clock_config.o
 .text.SMC_GetPowerModeState
                0x00004df8       0x1a ./board/boards/clock_config.o
 .text.RTC_SetOscCapLoad
                0x00004e12       0x32 ./board/boards/clock_config.o
 .text.BOARD_InitBootClocks
                0x00004e44        0xc ./board/boards/clock_config.o
                0x00004e44                BOARD_InitBootClocks
 .text.EnableIRQ
                0x00004e50       0x2c ./board/boards/peripherals.o
 .text.ACCEL_GPIO_init
                0x00004e7c        0xe ./board/boards/peripherals.o
                0x00004e7c                ACCEL_GPIO_init
 .text.BOARD_InitPeripherals
                0x00004e8a       0x10 ./board/boards/peripherals.o
                0x00004e8a                BOARD_InitPeripherals
 .text.BOARD_InitBootPeripherals
                0x00004e9a        0xc ./board/boards/peripherals.o
                0x00004e9a                BOARD_InitBootPeripherals
 .text.CLOCK_EnableClock
                0x00004ea6       0x34 ./board/boards/pin_mux.o
 .text.PORT_SetPinMux
                0x00004eda       0x3a ./board/boards/pin_mux.o
 .text.PORT_EnablePinsDigitalFilter
                0x00004f14       0x44 ./board/boards/pin_mux.o
 .text.PORT_SetPinInterruptConfig
                0x00004f58       0x3a ./board/boards/pin_mux.o
 .text.BOARD_InitBootPins
                0x00004f92       0x14 ./board/boards/pin_mux.o
                0x00004f92                BOARD_InitBootPins
 .text.__main   0x00004fa6        0xe c:/nxp/mcuxpressoide_11.0.0_2516/ide/plugins/com.nxp.mcuxpresso.tools.win32_11.0.0.201905131304/tools/bin/../lib/gcc/arm-none-eabi/8.2.1/../../../../arm-none-eabi/lib/thumb/v7e-m+fp/hard\libcr_semihost_nf.a(_cr__main.o)
                0x00004fa6                __CR_SEMIHOST
                0x00004fa6                __main
 .text.memset   0x00004fb4        0x4 c:/nxp/mcuxpressoide_11.0.0_2516/ide/plugins/com.nxp.mcuxpresso.tools.win32_11.0.0.201905131304/tools/bin/../lib/gcc/arm-none-eabi/8.2.1/../../../../arm-none-eabi/lib/thumb/v7e-m+fp/hard\libcr_c.a(memset.o)
                0x00004fb4                memset
 .text._deferredlazyseek
                0x00004fb8       0x40 c:/nxp/mcuxpressoide_11.0.0_2516/ide/plugins/com.nxp.mcuxpresso.tools.win32_11.0.0.201905131304/tools/bin/../lib/gcc/arm-none-eabi/8.2.1/../../../../arm-none-eabi/lib/thumb/v7e-m+fp/hard\libcr_c.a(_deferredlazyseek.o)
                0x00004fb8                _deferredlazyseek
 .text.__flsbuf
                0x00004ff8      0x140 c:/nxp/mcuxpressoide_11.0.0_2516/ide/plugins/com.nxp.mcuxpresso.tools.win32_11.0.0.201905131304/tools/bin/../lib/gcc/arm-none-eabi/8.2.1/../../../../arm-none-eabi/lib/thumb/v7e-m+fp/hard\libcr_c.a(_deferredlazyseek.o)
                0x00004ff8                __flsbuf
 .text._fflush  0x00005138       0x52 c:/nxp/mcuxpressoide_11.0.0_2516/ide/plugins/com.nxp.mcuxpresso.tools.win32_11.0.0.201905131304/tools/bin/../lib/gcc/arm-none-eabi/8.2.1/../../../../arm-none-eabi/lib/thumb/v7e-m+fp/hard\libcr_c.a(_fflush.o)
                0x00005138                _fflush
 .text.free     0x0000518a       0x30 c:/nxp/mcuxpressoide_11.0.0_2516/ide/plugins/com.nxp.mcuxpresso.tools.win32_11.0.0.201905131304/tools/bin/../lib/gcc/arm-none-eabi/8.2.1/../../../../arm-none-eabi/lib/thumb/v7e-m+fp/hard\libcr_c.a(alloc.o)
                0x0000518a                free
 .text.fputs    0x000051ba       0x2c c:/nxp/mcuxpressoide_11.0.0_2516/ide/plugins/com.nxp.mcuxpresso.tools.win32_11.0.0.201905131304/tools/bin/../lib/gcc/arm-none-eabi/8.2.1/../../../../arm-none-eabi/lib/thumb/v7e-m+fp/hard\libcr_c.a(fputs.o)
                0x000051ba                fputs
 .text.no_fp_display
                0x000051e6        0x4 c:/nxp/mcuxpressoide_11.0.0_2516/ide/plugins/com.nxp.mcuxpresso.tools.win32_11.0.0.201905131304/tools/bin/../lib/gcc/arm-none-eabi/8.2.1/../../../../arm-none-eabi/lib/thumb/v7e-m+fp/hard\libcr_c.a(printf.o)
 .text.strlen   0x000051ea       0x4c c:/nxp/mcuxpressoide_11.0.0_2516/ide/plugins/com.nxp.mcuxpresso.tools.win32_11.0.0.201905131304/tools/bin/../lib/gcc/arm-none-eabi/8.2.1/../../../../arm-none-eabi/lib/thumb/v7e-m+fp/hard\libcr_c.a(strlen.o)
                0x000051ea                strlen
 .text._fdopen  0x00005236       0x68 c:/nxp/mcuxpressoide_11.0.0_2516/ide/plugins/com.nxp.mcuxpresso.tools.win32_11.0.0.201905131304/tools/bin/../lib/gcc/arm-none-eabi/8.2.1/../../../../arm-none-eabi/lib/thumb/v7e-m+fp/hard\libcr_c.a(_fdopen.o)
                0x00005236                _fdopen
 .text.fclose   0x0000529e       0x58 c:/nxp/mcuxpressoide_11.0.0_2516/ide/plugins/com.nxp.mcuxpresso.tools.win32_11.0.0.201905131304/tools/bin/../lib/gcc/arm-none-eabi/8.2.1/../../../../arm-none-eabi/lib/thumb/v7e-m+fp/hard\libcr_c.a(fclose.o)
                0x0000529e                fclose
 .text.remove   0x000052f6       0x14 c:/nxp/mcuxpressoide_11.0.0_2516/ide/plugins/com.nxp.mcuxpresso.tools.win32_11.0.0.201905131304/tools/bin/../lib/gcc/arm-none-eabi/8.2.1/../../../../arm-none-eabi/lib/thumb/v7e-m+fp/hard\libcr_c.a(remove.o)
                0x000052f6                remove
 .text._do_fflush
                0x0000530a       0x40 c:/nxp/mcuxpressoide_11.0.0_2516/ide/plugins/com.nxp.mcuxpresso.tools.win32_11.0.0.201905131304/tools/bin/../lib/gcc/arm-none-eabi/8.2.1/../../../../arm-none-eabi/lib/thumb/v7e-m+fp/hard\libcr_c.a(_do_fflush.o)
                0x0000530a                _do_fflush
 .text.__aeabi_d2iz
                0x0000534a       0x40 c:/nxp/mcuxpressoide_11.0.0_2516/ide/plugins/com.nxp.mcuxpresso.tools.win32_11.0.0.201905131304/tools/bin/../lib/gcc/arm-none-eabi/8.2.1/thumb/v7e-m+fp/hard\libcr_eabihelpers.a(double.o)
                0x0000534a                __aeabi_d2iz
 .text.__bhs_ui2d
                0x0000538a       0x46 c:/nxp/mcuxpressoide_11.0.0_2516/ide/plugins/com.nxp.mcuxpresso.tools.win32_11.0.0.201905131304/tools/bin/../lib/gcc/arm-none-eabi/8.2.1/thumb/v7e-m+fp/hard\libcr_eabihelpers.a(double.o)
                0x0000538a                __bhs_ui2d
 .text.__aeabi_i2d
                0x000053d0       0x12 c:/nxp/mcuxpressoide_11.0.0_2516/ide/plugins/com.nxp.mcuxpresso.tools.win32_11.0.0.201905131304/tools/bin/../lib/gcc/arm-none-eabi/8.2.1/thumb/v7e-m+fp/hard\libcr_eabihelpers.a(double.o)
                0x000053d0                __aeabi_i2d
 .text.__aeabi_dcmpeq
                0x000053e2       0x2e c:/nxp/mcuxpressoide_11.0.0_2516/ide/plugins/com.nxp.mcuxpresso.tools.win32_11.0.0.201905131304/tools/bin/../lib/gcc/arm-none-eabi/8.2.1/thumb/v7e-m+fp/hard\libcr_eabihelpers.a(double.o)
                0x000053e2                __aeabi_dcmpeq
 .text.__aeabi_memset_lowlevel
                0x00005410       0x32 c:/nxp/mcuxpressoide_11.0.0_2516/ide/plugins/com.nxp.mcuxpresso.tools.win32_11.0.0.201905131304/tools/bin/../lib/gcc/arm-none-eabi/8.2.1/thumb/v7e-m+fp/hard\libcr_eabihelpers.a(memcpy.o)
                0x00005410                __aeabi_lowlevel_memset
 .text.__sys_close
                0x00005442        0xc c:/nxp/mcuxpressoide_11.0.0_2516/ide/plugins/com.nxp.mcuxpresso.tools.win32_11.0.0.201905131304/tools/bin/../lib/gcc/arm-none-eabi/8.2.1/../../../../arm-none-eabi/lib/thumb/v7e-m+fp/hard\libcr_semihost_nf.a(__sys_close.o)
                0x00005442                __sys_close
 .text.__sys_flen
                0x0000544e        0xc c:/nxp/mcuxpressoide_11.0.0_2516/ide/plugins/com.nxp.mcuxpresso.tools.win32_11.0.0.201905131304/tools/bin/../lib/gcc/arm-none-eabi/8.2.1/../../../../arm-none-eabi/lib/thumb/v7e-m+fp/hard\libcr_semihost_nf.a(__sys_flen.o)
                0x0000544e                __sys_flen
 .text.__sys_istty
                0x0000545a        0xc c:/nxp/mcuxpressoide_11.0.0_2516/ide/plugins/com.nxp.mcuxpresso.tools.win32_11.0.0.201905131304/tools/bin/../lib/gcc/arm-none-eabi/8.2.1/../../../../arm-none-eabi/lib/thumb/v7e-m+fp/hard\libcr_semihost_nf.a(__sys_istty.o)
                0x0000545a                __sys_istty
 .text.__sys_remove
                0x00005466        0xc c:/nxp/mcuxpressoide_11.0.0_2516/ide/plugins/com.nxp.mcuxpresso.tools.win32_11.0.0.201905131304/tools/bin/../lib/gcc/arm-none-eabi/8.2.1/../../../../arm-none-eabi/lib/thumb/v7e-m+fp/hard\libcr_semihost_nf.a(__sys_remove.o)
                0x00005466                __sys_remove
 .text.__sys_seek
                0x00005472        0xc c:/nxp/mcuxpressoide_11.0.0_2516/ide/plugins/com.nxp.mcuxpresso.tools.win32_11.0.0.201905131304/tools/bin/../lib/gcc/arm-none-eabi/8.2.1/../../../../arm-none-eabi/lib/thumb/v7e-m+fp/hard\libcr_semihost_nf.a(__sys_seek.o)
                0x00005472                __sys_seek
 .text.__sys_tmpnam
                0x0000547e        0xc c:/nxp/mcuxpressoide_11.0.0_2516/ide/plugins/com.nxp.mcuxpresso.tools.win32_11.0.0.201905131304/tools/bin/../lib/gcc/arm-none-eabi/8.2.1/../../../../arm-none-eabi/lib/thumb/v7e-m+fp/hard\libcr_semihost_nf.a(__sys_tmpnam.o)
                0x0000547e                __sys_tmpnam
 .text.__sys_write
                0x0000548a        0xc c:/nxp/mcuxpressoide_11.0.0_2516/ide/plugins/com.nxp.mcuxpresso.tools.win32_11.0.0.201905131304/tools/bin/../lib/gcc/arm-none-eabi/8.2.1/../../../../arm-none-eabi/lib/thumb/v7e-m+fp/hard\libcr_semihost_nf.a(__sys_write.o)
                0x0000548a                __sys_write
 *(SORT_BY_ALIGNMENT(.rodata) SORT_BY_ALIGNMENT(.rodata.*) SORT_BY_ALIGNMENT(.constdata) SORT_BY_ALIGNMENT(.constdata.*))
 *fill*         0x00005496        0x2 ff
 .rodata        0x00005498      0x21f ./utilities/fsl_debug_console.o
 *fill*         0x000056b7        0x1 ff
 .rodata        0x000056b8      0x12d ./source/MK66FN2M0xxx18_Accelerometer2.o
 *fill*         0x000057e5        0x3 ff
 .rodata        0x000057e8       0x9e ./source/accel.o
 *fill*         0x00005886        0x2 ff
 .rodata        0x00005888      0x337 ./drivers/fsl_clock.o
 *fill*         0x00005bbf        0x1 ff
 .rodata.fllFactorTable.8261
                0x00005bc0       0x10 ./drivers/fsl_clock.o
 .rodata.s_portBases
                0x00005bd0       0x14 ./drivers/fsl_gpio.o
 .rodata.s_gpioBases
                0x00005be4       0x14 ./drivers/fsl_gpio.o
 .rodata        0x00005bf8       0x6b ./drivers/fsl_gpio.o
 *fill*         0x00005c63        0x1 ff
 .rodata.s_i2cDividerTable
                0x00005c64       0x80 ./drivers/fsl_i2c.o
 .rodata.s_i2cClocks
                0x00005ce4       0x10 ./drivers/fsl_i2c.o
 .rodata.s_i2cBases
                0x00005cf4       0x10 ./drivers/fsl_i2c.o
 .rodata        0x00005d04      0x39a ./drivers/fsl_i2c.o
 *fill*         0x0000609e        0x2 ff
 .rodata.s_uartBases
                0x000060a0       0x14 ./drivers/fsl_uart.o
 .rodata.s_uartClock
                0x000060b4       0x14 ./drivers/fsl_uart.o
 .rodata        0x000060c8      0x514 ./drivers/fsl_uart.o
 .rodata.s_UartAdapterBase
                0x000065dc       0x14 ./component/uart/uart_adapter.o
 .rodata        0x000065f0      0x25e ./component/uart/uart_adapter.o
 *fill*         0x0000684e        0x2 ff
 .rodata        0x00006850      0x525 ./component/serial_manager/serial_manager.o
 *fill*         0x00006d75        0x3 ff
 .rodata        0x00006d78      0x244 ./component/serial_manager/serial_port_uart.o
 .rodata.mcgConfig_BOARD_BootClockHSRUN
                0x00006fbc        0xc ./board/boards/clock_config.o
                0x00006fbc                mcgConfig_BOARD_BootClockHSRUN
 .rodata.simConfig_BOARD_BootClockHSRUN
                0x00006fc8        0x8 ./board/boards/clock_config.o
                0x00006fc8                simConfig_BOARD_BootClockHSRUN
 .rodata.oscConfig_BOARD_BootClockHSRUN
                0x00006fd0        0x8 ./board/boards/clock_config.o
                0x00006fd0                oscConfig_BOARD_BootClockHSRUN
 .rodata.ACCEL_config
                0x00006fd8        0xc ./board/boards/peripherals.o
                0x00006fd8                ACCEL_config
 .rodata        0x00006fe4       0x26 ./board/boards/pin_mux.o
 *fill*         0x0000700a        0x2 ff
 .rodata        0x0000700c      0x111 ./accel/fsl_fxos.o
 *fill*         0x0000711d        0x3 ff
 .rodata.__num_Ciob_streams
                0x00007120        0x4 c:/nxp/mcuxpressoide_11.0.0_2516/ide/plugins/com.nxp.mcuxpresso.tools.win32_11.0.0.201905131304/tools/bin/../lib/gcc/arm-none-eabi/8.2.1/../../../../arm-none-eabi/lib/thumb/v7e-m+fp/hard\libcr_semihost_nf.a(__ciob.o)
                0x00007120                __num_Ciob_streams
 .rodata.__assertion_failed.str1.1
                0x00007124       0x15 c:/nxp/mcuxpressoide_11.0.0_2516/ide/plugins/com.nxp.mcuxpresso.tools.win32_11.0.0.201905131304/tools/bin/../lib/gcc/arm-none-eabi/8.2.1/../../../../arm-none-eabi/lib/thumb/v7e-m+fp/hard\libcr_semihost_nf.a(_cr_assert.o)
 .rodata._Csys_alloc.str1.1
                0x00007139       0x18 c:/nxp/mcuxpressoide_11.0.0_2516/ide/plugins/com.nxp.mcuxpresso.tools.win32_11.0.0.201905131304/tools/bin/../lib/gcc/arm-none-eabi/8.2.1/../../../../arm-none-eabi/lib/thumb/v7e-m+fp/hard\libcr_c.a(alloc.o)
 .rodata._initio.str1.1
                0x00007151        0x4 c:/nxp/mcuxpressoide_11.0.0_2516/ide/plugins/com.nxp.mcuxpresso.tools.win32_11.0.0.201905131304/tools/bin/../lib/gcc/arm-none-eabi/8.2.1/../../../../arm-none-eabi/lib/thumb/v7e-m+fp/hard\libcr_c.a(initio.o)
 .rodata.__vfprintf.str1.1
                0x00007155       0x35 c:/nxp/mcuxpressoide_11.0.0_2516/ide/plugins/com.nxp.mcuxpresso.tools.win32_11.0.0.201905131304/tools/bin/../lib/gcc/arm-none-eabi/8.2.1/../../../../arm-none-eabi/lib/thumb/v7e-m+fp/hard\libcr_c.a(printf.o)
                                 0x38 (size before relaxing)
                0x00007190                . = ALIGN (0x8)
 *fill*         0x0000718a        0x6 ff

.glue_7         0x00007190        0x0
 .glue_7        0x00007190        0x0 linker stubs

.glue_7t        0x00007190        0x0
 .glue_7t       0x00007190        0x0 linker stubs

.vfp11_veneer   0x00007190        0x0
 .vfp11_veneer  0x00007190        0x0 linker stubs

.v4_bx          0x00007190        0x0
 .v4_bx         0x00007190        0x0 linker stubs

.iplt           0x00007190        0x0
 .iplt          0x00007190        0x0 ./utilities/fsl_debug_console.o

.rel.dyn        0x00007190        0x0
 .rel.iplt      0x00007190        0x0 ./utilities/fsl_debug_console.o

.ARM.extab
 *(SORT_BY_ALIGNMENT(.ARM.extab*) SORT_BY_ALIGNMENT(.gnu.linkonce.armextab.*))
                0x00007190                __exidx_start = .

.ARM.exidx
 *(SORT_BY_ALIGNMENT(.ARM.exidx*) SORT_BY_ALIGNMENT(.gnu.linkonce.armexidx.*))
                0x00007190                __exidx_end = .
                0x00007190                _etext = .

.m_usb_data
 *(SORT_BY_ALIGNMENT(m_usb_bdt))

.data_RAM2      0x1fff0000        0x0 load address 0x00007190
 FILL mask 0xff
                [!provide]                PROVIDE (__start_data_RAM2 = .)
 *(SORT_BY_ALIGNMENT(.ramfunc.$RAM2))
 *(SORT_BY_ALIGNMENT(.ramfunc.$SRAM_LOWER))
 *(SORT_BY_ALIGNMENT(.data.$RAM2))
 *(SORT_BY_ALIGNMENT(.data.$SRAM_LOWER))
 *(SORT_BY_ALIGNMENT(.data.$RAM2.*))
 *(SORT_BY_ALIGNMENT(.data.$SRAM_LOWER.*))
                0x1fff0000                . = ALIGN (0x8)
                [!provide]                PROVIDE (__end_data_RAM2 = .)

.data_RAM3      0x14000000        0x0 load address 0x00007190
 FILL mask 0xff
                [!provide]                PROVIDE (__start_data_RAM3 = .)
 *(SORT_BY_ALIGNMENT(.ramfunc.$RAM3))
 *(SORT_BY_ALIGNMENT(.ramfunc.$FLEX_RAM))
 *(SORT_BY_ALIGNMENT(.data.$RAM3))
 *(SORT_BY_ALIGNMENT(.data.$FLEX_RAM))
 *(SORT_BY_ALIGNMENT(.data.$RAM3.*))
 *(SORT_BY_ALIGNMENT(.data.$FLEX_RAM.*))
                0x14000000                . = ALIGN (0x8)
                [!provide]                PROVIDE (__end_data_RAM3 = .)

.uninit_RESERVED
                0x20000000        0x0
                0x20000000                . = ALIGN (0x8)
 *(SORT_BY_ALIGNMENT(.bss.$RESERVED*))
                0x20000000                . = ALIGN (0x8)
                0x20000000                _end_uninit_RESERVED = .

.data           0x20000000       0x10 load address 0x00007190
 FILL mask 0xff
                0x20000000                _data = .
 *(SORT_BY_ALIGNMENT(vtable))
 *(SORT_BY_ALIGNMENT(.ramfunc*))
 *(SORT_BY_ALIGNMENT(.data*))
 .data.s_slowIrcFreq
                0x20000000        0x4 ./drivers/fsl_clock.o
 .data.s_fastIrcFreq
                0x20000004        0x4 ./drivers/fsl_clock.o
 .data.SystemCoreClock
                0x20000008        0x4 ./device/system_MK66F18.o
                0x20000008                SystemCoreClock
                0x20000010                . = ALIGN (0x8)
 *fill*         0x2000000c        0x4 ff
                0x20000010                _edata = .

.igot.plt       0x20000010        0x0 load address 0x000071a0
 .igot.plt      0x20000010        0x0 ./utilities/fsl_debug_console.o

.bss_RAM2       0x1fff0000        0x0
                0x1fff0000                . = ALIGN (0x8)
                [!provide]                PROVIDE (__start_bss_RAM2 = .)
 *(SORT_BY_ALIGNMENT(.bss.$RAM2))
 *(SORT_BY_ALIGNMENT(.bss.$SRAM_LOWER))
 *(SORT_BY_ALIGNMENT(.bss.$RAM2.*))
 *(SORT_BY_ALIGNMENT(.bss.$SRAM_LOWER.*))
                0x1fff0000                . = ALIGN ((. != 0x0)?0x8:0x1)
                [!provide]                PROVIDE (__end_bss_RAM2 = .)

.bss_RAM3       0x14000000        0x0
                0x14000000                . = ALIGN (0x8)
                [!provide]                PROVIDE (__start_bss_RAM3 = .)
 *(SORT_BY_ALIGNMENT(.bss.$RAM3))
 *(SORT_BY_ALIGNMENT(.bss.$FLEX_RAM))
 *(SORT_BY_ALIGNMENT(.bss.$RAM3.*))
 *(SORT_BY_ALIGNMENT(.bss.$FLEX_RAM.*))
                0x14000000                . = ALIGN ((. != 0x0)?0x8:0x1)
                [!provide]                PROVIDE (__end_bss_RAM3 = .)

.bss            0x20000010      0x128
                0x20000010                . = ALIGN (0x8)
                0x20000010                _bss = .
 *(SORT_BY_ALIGNMENT(.bss*))
 .bss.s_debugConsoleState
                0x20000010       0x1c ./utilities/fsl_debug_console.o
 .bss.g_serialHandle
                0x2000002c        0x4 ./utilities/fsl_debug_console.o
                0x2000002c                g_serialHandle
 .bss.s_extPllFreq
                0x20000030        0x4 ./drivers/fsl_clock.o
 .bss.g_xtal0Freq
                0x20000034        0x4 ./drivers/fsl_clock.o
                0x20000034                g_xtal0Freq
 .bss.g_xtal32Freq
                0x20000038        0x4 ./drivers/fsl_clock.o
                0x20000038                g_xtal32Freq
 .bss.s_i2cHandle
                0x2000003c       0x10 ./drivers/fsl_i2c.o
 .bss.s_i2cMasterIsr
                0x2000004c        0x4 ./drivers/fsl_i2c.o
 .bss.s_i2cSlaveIsr
                0x20000050        0x4 ./drivers/fsl_i2c.o
 .bss.s_lpuartHandle
                0x20000054        0x4 ./drivers/fsl_lpuart.o
 .bss.s_lpuartIsr
                0x20000058        0x4 ./drivers/fsl_lpuart.o
 .bss.s_uartHandle
                0x2000005c       0x14 ./drivers/fsl_uart.o
 .bss.s_uartIsr
                0x20000070        0x4 ./drivers/fsl_uart.o
 .bss.__Ciob    0x20000074       0xb4 c:/nxp/mcuxpressoide_11.0.0_2516/ide/plugins/com.nxp.mcuxpresso.tools.win32_11.0.0.201905131304/tools/bin/../lib/gcc/arm-none-eabi/8.2.1/../../../../arm-none-eabi/lib/thumb/v7e-m+fp/hard\libcr_semihost_nf.a(__ciob.o)
                0x20000074                __Ciob
 .bss.__end_of_heap
                0x20000128        0x4 c:/nxp/mcuxpressoide_11.0.0_2516/ide/plugins/com.nxp.mcuxpresso.tools.win32_11.0.0.201905131304/tools/bin/../lib/gcc/arm-none-eabi/8.2.1/../../../../arm-none-eabi/lib/thumb/v7e-m+fp/hard\libcr_c.a(__init_alloc.o)
                0x20000128                __end_of_heap
 .bss.__heaps   0x2000012c        0x4 c:/nxp/mcuxpressoide_11.0.0_2516/ide/plugins/com.nxp.mcuxpresso.tools.win32_11.0.0.201905131304/tools/bin/../lib/gcc/arm-none-eabi/8.2.1/../../../../arm-none-eabi/lib/thumb/v7e-m+fp/hard\libcr_c.a(__init_alloc.o)
                0x2000012c                __heaps
 .bss.errno     0x20000130        0x4 c:/nxp/mcuxpressoide_11.0.0_2516/ide/plugins/com.nxp.mcuxpresso.tools.win32_11.0.0.201905131304/tools/bin/../lib/gcc/arm-none-eabi/8.2.1/../../../../arm-none-eabi/lib/thumb/v7e-m+fp/hard\libcr_c.a(errno.o)
                0x20000130                errno
 .bss.orientationChange
                0x20000134        0x1 ./source/MK66FN2M0xxx18_Accelerometer2.o
                0x20000134                orientationChange
 *(SORT_BY_ALIGNMENT(COMMON))
                0x20000138                . = ALIGN (0x8)
 *fill*         0x20000135        0x3 
                0x20000138                _ebss = .
                [!provide]                PROVIDE (end = .)

.noinit_RAM2    0x1fff0000        0x0
                0x1fff0000                . = ALIGN (0x8)
 *(SORT_BY_ALIGNMENT(.noinit.$RAM2))
 *(SORT_BY_ALIGNMENT(.noinit.$SRAM_LOWER))
 *(SORT_BY_ALIGNMENT(.noinit.$RAM2.*))
 *(SORT_BY_ALIGNMENT(.noinit.$SRAM_LOWER.*))
                0x1fff0000                . = ALIGN (0x8)

.noinit_RAM3    0x14000000        0x0
                0x14000000                . = ALIGN (0x8)
 *(SORT_BY_ALIGNMENT(.noinit.$RAM3))
 *(SORT_BY_ALIGNMENT(.noinit.$FLEX_RAM))
 *(SORT_BY_ALIGNMENT(.noinit.$RAM3.*))
 *(SORT_BY_ALIGNMENT(.noinit.$FLEX_RAM.*))
                0x14000000                . = ALIGN (0x8)

.noinit         0x20000138        0x0
                0x20000138                . = ALIGN (0x8)
                0x20000138                _noinit = .
 *(SORT_BY_ALIGNMENT(.noinit*))
                0x20000138                . = ALIGN (0x8)
                0x20000138                _end_noinit = .
                0x00001000                _HeapSize = 0x1000

.heap           0x20000138     0x1000
                0x20000138                _pvHeapStart = .
                0x20001138                . = (. + _HeapSize)
 *fill*         0x20000138     0x1000 
                0x20001138                . = ALIGN (0x8)
                0x20001138                _pvHeapLimit = .
                0x00001000                _StackSize = 0x1000

.heap2stackfill
                0x20001138     0x1000
                0x20002138                . = (. + _StackSize)
 *fill*         0x20001138     0x1000 

.stack          0x2002f000        0x0
                0x2002f000                _vStackBase = .
                0x2002f000                . = ALIGN (0x8)
                0x20030000                _vStackTop = (. + _StackSize)
                0x00000000                _image_start = LOADADDR (.text)
                0x000071a0                _image_end = (LOADADDR (.data) + SIZEOF (.data))
                0x000071a0                _image_size = (_image_end - _image_start)
OUTPUT(MK66FN2M0xxx18_Accelerometer2.axf elf32-littlearm)

.debug_info     0x00000000    0x11785
 .debug_info    0x00000000      0x92c ./utilities/fsl_debug_console.o
 .debug_info    0x0000092c      0xa38 ./startup/startup_mk66f18.o
 .debug_info    0x00001364      0xc9f ./source/MK66FN2M0xxx18_Accelerometer2.o
 .debug_info    0x00002003      0x2f1 ./source/accel.o
 .debug_info    0x000022f4       0x3c ./source/semihost_hardfault.o
 .debug_info    0x00002330     0x2a2c ./drivers/fsl_clock.o
 .debug_info    0x00004d5c      0x6d4 ./drivers/fsl_gpio.o
 .debug_info    0x00005430     0x1f9f ./drivers/fsl_i2c.o
 .debug_info    0x000073cf     0x1af5 ./drivers/fsl_lpuart.o
 .debug_info    0x00008ec4      0xb86 ./drivers/fsl_smc.o
 .debug_info    0x00009a4a     0x1cb0 ./drivers/fsl_uart.o
 .debug_info    0x0000b6fa      0xa95 ./device/system_MK66F18.o
 .debug_info    0x0000c18f      0xac4 ./component/uart/uart_adapter.o
 .debug_info    0x0000cc53      0x765 ./component/serial_manager/serial_manager.o
 .debug_info    0x0000d3b8      0x4fc ./component/serial_manager/serial_port_uart.o
 .debug_info    0x0000d8b4      0xbd6 ./board/boards/board.o
 .debug_info    0x0000e48a     0x16bf ./board/boards/clock_config.o
 .debug_info    0x0000fb49      0x9d5 ./board/boards/peripherals.o
 .debug_info    0x0001051e      0xdd1 ./board/boards/pin_mux.o
 .debug_info    0x000112ef      0x496 ./accel/fsl_fxos.o

.debug_abbrev   0x00000000     0x2961
 .debug_abbrev  0x00000000      0x19a ./utilities/fsl_debug_console.o
 .debug_abbrev  0x0000019a      0x17a ./startup/startup_mk66f18.o
 .debug_abbrev  0x00000314      0x206 ./source/MK66FN2M0xxx18_Accelerometer2.o
 .debug_abbrev  0x0000051a      0x14d ./source/accel.o
 .debug_abbrev  0x00000667       0x31 ./source/semihost_hardfault.o
 .debug_abbrev  0x00000698      0x352 ./drivers/fsl_clock.o
 .debug_abbrev  0x000009ea      0x1b8 ./drivers/fsl_gpio.o
 .debug_abbrev  0x00000ba2      0x382 ./drivers/fsl_i2c.o
 .debug_abbrev  0x00000f24      0x316 ./drivers/fsl_lpuart.o
 .debug_abbrev  0x0000123a      0x333 ./drivers/fsl_smc.o
 .debug_abbrev  0x0000156d      0x345 ./drivers/fsl_uart.o
 .debug_abbrev  0x000018b2      0x170 ./device/system_MK66F18.o
 .debug_abbrev  0x00001a22      0x1e8 ./component/uart/uart_adapter.o
 .debug_abbrev  0x00001c0a      0x17d ./component/serial_manager/serial_manager.o
 .debug_abbrev  0x00001d87      0x160 ./component/serial_manager/serial_port_uart.o
 .debug_abbrev  0x00001ee7      0x1d4 ./board/boards/board.o
 .debug_abbrev  0x000020bb      0x2cc ./board/boards/clock_config.o
 .debug_abbrev  0x00002387      0x1dd ./board/boards/peripherals.o
 .debug_abbrev  0x00002564      0x2aa ./board/boards/pin_mux.o
 .debug_abbrev  0x0000280e      0x153 ./accel/fsl_fxos.o

.debug_aranges  0x00000000      0xf20
 .debug_aranges
                0x00000000       0x50 ./utilities/fsl_debug_console.o
 .debug_aranges
                0x00000050      0x3a0 ./startup/startup_mk66f18.o
 .debug_aranges
                0x000003f0       0x38 ./source/MK66FN2M0xxx18_Accelerometer2.o
 .debug_aranges
                0x00000428       0x28 ./source/accel.o
 .debug_aranges
                0x00000450       0x20 ./source/semihost_hardfault.o
 .debug_aranges
                0x00000470      0x250 ./drivers/fsl_clock.o
 .debug_aranges
                0x000006c0       0x40 ./drivers/fsl_gpio.o
 .debug_aranges
                0x00000700      0x188 ./drivers/fsl_i2c.o
 .debug_aranges
                0x00000888      0x118 ./drivers/fsl_lpuart.o
 .debug_aranges
                0x000009a0       0x98 ./drivers/fsl_smc.o
 .debug_aranges
                0x00000a38      0x160 ./drivers/fsl_uart.o
 .debug_aranges
                0x00000b98       0x30 ./device/system_MK66F18.o
 .debug_aranges
                0x00000bc8       0x40 ./component/uart/uart_adapter.o
 .debug_aranges
                0x00000c08       0x88 ./component/serial_manager/serial_manager.o
 .debug_aranges
                0x00000c90       0x38 ./component/serial_manager/serial_port_uart.o
 .debug_aranges
                0x00000cc8       0x68 ./board/boards/board.o
 .debug_aranges
                0x00000d30       0xd8 ./board/boards/clock_config.o
 .debug_aranges
                0x00000e08       0x48 ./board/boards/peripherals.o
 .debug_aranges
                0x00000e50       0x98 ./board/boards/pin_mux.o
 .debug_aranges
                0x00000ee8       0x38 ./accel/fsl_fxos.o

.debug_ranges   0x00000000      0xde0
 .debug_ranges  0x00000000       0x40 ./utilities/fsl_debug_console.o
 .debug_ranges  0x00000040      0x390 ./startup/startup_mk66f18.o
 .debug_ranges  0x000003d0       0x28 ./source/MK66FN2M0xxx18_Accelerometer2.o
 .debug_ranges  0x000003f8       0x18 ./source/accel.o
 .debug_ranges  0x00000410       0x10 ./source/semihost_hardfault.o
 .debug_ranges  0x00000420      0x240 ./drivers/fsl_clock.o
 .debug_ranges  0x00000660       0x30 ./drivers/fsl_gpio.o
 .debug_ranges  0x00000690      0x178 ./drivers/fsl_i2c.o
 .debug_ranges  0x00000808      0x108 ./drivers/fsl_lpuart.o
 .debug_ranges  0x00000910       0x88 ./drivers/fsl_smc.o
 .debug_ranges  0x00000998      0x150 ./drivers/fsl_uart.o
 .debug_ranges  0x00000ae8       0x20 ./device/system_MK66F18.o
 .debug_ranges  0x00000b08       0x30 ./component/uart/uart_adapter.o
 .debug_ranges  0x00000b38       0x78 ./component/serial_manager/serial_manager.o
 .debug_ranges  0x00000bb0       0x28 ./component/serial_manager/serial_port_uart.o
 .debug_ranges  0x00000bd8       0x58 ./board/boards/board.o
 .debug_ranges  0x00000c30       0xc8 ./board/boards/clock_config.o
 .debug_ranges  0x00000cf8       0x38 ./board/boards/peripherals.o
 .debug_ranges  0x00000d30       0x88 ./board/boards/pin_mux.o
 .debug_ranges  0x00000db8       0x28 ./accel/fsl_fxos.o

.debug_macro    0x00000000    0x1ceb2
 .debug_macro   0x00000000      0x184 ./utilities/fsl_debug_console.o
 .debug_macro   0x00000184      0xad8 ./utilities/fsl_debug_console.o
 .debug_macro   0x00000c5c       0x10 ./utilities/fsl_debug_console.o
 .debug_macro   0x00000c6c       0x16 ./utilities/fsl_debug_console.o
 .debug_macro   0x00000c82       0x10 ./utilities/fsl_debug_console.o
 .debug_macro   0x00000c92      0x12e ./utilities/fsl_debug_console.o
 .debug_macro   0x00000dc0       0x28 ./utilities/fsl_debug_console.o
 .debug_macro   0x00000de8       0x56 ./utilities/fsl_debug_console.o
 .debug_macro   0x00000e3e       0x16 ./utilities/fsl_debug_console.o
 .debug_macro   0x00000e54       0x22 ./utilities/fsl_debug_console.o
 .debug_macro   0x00000e76      0x5b3 ./utilities/fsl_debug_console.o
 .debug_macro   0x00001429       0x10 ./utilities/fsl_debug_console.o
 .debug_macro   0x00001439       0x56 ./utilities/fsl_debug_console.o
 .debug_macro   0x0000148f       0x1c ./utilities/fsl_debug_console.o
 .debug_macro   0x000014ab       0x22 ./utilities/fsl_debug_console.o
 .debug_macro   0x000014cd       0xdf ./utilities/fsl_debug_console.o
 .debug_macro   0x000015ac      0xecf ./utilities/fsl_debug_console.o
 .debug_macro   0x0000247b       0x40 ./utilities/fsl_debug_console.o
 .debug_macro   0x000024bb    0x15ebc ./utilities/fsl_debug_console.o
 .debug_macro   0x00018377     0x1440 ./utilities/fsl_debug_console.o
 .debug_macro   0x000197b7       0xd0 ./utilities/fsl_debug_console.o
 .debug_macro   0x00019887      0x190 ./utilities/fsl_debug_console.o
 .debug_macro   0x00019a17       0x34 ./utilities/fsl_debug_console.o
 .debug_macro   0x00019a4b       0x10 ./utilities/fsl_debug_console.o
 .debug_macro   0x00019a5b       0x32 ./utilities/fsl_debug_console.o
 .debug_macro   0x00019a8d       0x1c ./utilities/fsl_debug_console.o
 .debug_macro   0x00019aa9       0xd2 ./utilities/fsl_debug_console.o
 .debug_macro   0x00019b7b       0x1c ./utilities/fsl_debug_console.o
 .debug_macro   0x00019b97       0x29 ./startup/startup_mk66f18.o
 .debug_macro   0x00019bc0      0x1a8 ./source/MK66FN2M0xxx18_Accelerometer2.o
 .debug_macro   0x00019d68       0xd8 ./source/MK66FN2M0xxx18_Accelerometer2.o
 .debug_macro   0x00019e40       0x22 ./source/MK66FN2M0xxx18_Accelerometer2.o
 .debug_macro   0x00019e62       0x1c ./source/MK66FN2M0xxx18_Accelerometer2.o
 .debug_macro   0x00019e7e       0x10 ./source/MK66FN2M0xxx18_Accelerometer2.o
 .debug_macro   0x00019e8e       0x16 ./source/MK66FN2M0xxx18_Accelerometer2.o
 .debug_macro   0x00019ea4      0x28e ./source/MK66FN2M0xxx18_Accelerometer2.o
 .debug_macro   0x0001a132       0x22 ./source/MK66FN2M0xxx18_Accelerometer2.o
 .debug_macro   0x0001a154       0x2e ./source/MK66FN2M0xxx18_Accelerometer2.o
 .debug_macro   0x0001a182      0x267 ./source/MK66FN2M0xxx18_Accelerometer2.o
 .debug_macro   0x0001a3e9       0x2e ./source/MK66FN2M0xxx18_Accelerometer2.o
 .debug_macro   0x0001a417      0xb93 ./source/MK66FN2M0xxx18_Accelerometer2.o
 .debug_macro   0x0001afaa       0xc4 ./source/MK66FN2M0xxx18_Accelerometer2.o
 .debug_macro   0x0001b06e      0x107 ./source/accel.o
 .debug_macro   0x0001b175       0x1c ./source/accel.o
 .debug_macro   0x0001b191      0xb8d ./source/accel.o
 .debug_macro   0x0001bd1e       0x11 ./source/semihost_hardfault.o
 .debug_macro   0x0001bd2f      0x1c6 ./drivers/fsl_clock.o
 .debug_macro   0x0001bef5      0x104 ./drivers/fsl_gpio.o
 .debug_macro   0x0001bff9      0x103 ./drivers/fsl_i2c.o
 .debug_macro   0x0001c0fc       0x1c ./drivers/fsl_i2c.o
 .debug_macro   0x0001c118      0x104 ./drivers/fsl_lpuart.o
 .debug_macro   0x0001c21c      0x104 ./drivers/fsl_smc.o
 .debug_macro   0x0001c320      0x10a ./drivers/fsl_uart.o
 .debug_macro   0x0001c42a       0x98 ./device/system_MK66F18.o
 .debug_macro   0x0001c4c2      0x100 ./component/uart/uart_adapter.o
 .debug_macro   0x0001c5c2       0x10 ./component/uart/uart_adapter.o
 .debug_macro   0x0001c5d2       0x22 ./component/uart/uart_adapter.o
 .debug_macro   0x0001c5f4      0x127 ./component/serial_manager/serial_manager.o
 .debug_macro   0x0001c71b      0x118 ./component/serial_manager/serial_port_uart.o
 .debug_macro   0x0001c833       0x22 ./component/serial_manager/serial_port_uart.o
 .debug_macro   0x0001c855      0x16b ./board/boards/board.o
 .debug_macro   0x0001c9c0       0x16 ./board/boards/board.o
 .debug_macro   0x0001c9d6      0x1aa ./board/boards/clock_config.o
 .debug_macro   0x0001cb80       0x10 ./board/boards/clock_config.o
 .debug_macro   0x0001cb90      0x118 ./board/boards/peripherals.o
 .debug_macro   0x0001cca8      0x10d ./board/boards/pin_mux.o
 .debug_macro   0x0001cdb5       0xfd ./accel/fsl_fxos.o

.debug_line     0x00000000     0x94e4
 .debug_line    0x00000000      0x50d ./utilities/fsl_debug_console.o
 .debug_line    0x0000050d      0xa5e ./startup/startup_mk66f18.o
 .debug_line    0x00000f6b      0x4d5 ./source/MK66FN2M0xxx18_Accelerometer2.o
 .debug_line    0x00001440      0x34d ./source/accel.o
 .debug_line    0x0000178d       0x5a ./source/semihost_hardfault.o
 .debug_line    0x000017e7     0x17bf ./drivers/fsl_clock.o
 .debug_line    0x00002fa6      0x365 ./drivers/fsl_gpio.o
 .debug_line    0x0000330b     0x1387 ./drivers/fsl_i2c.o
 .debug_line    0x00004692      0xd63 ./drivers/fsl_lpuart.o
 .debug_line    0x000053f5      0x581 ./drivers/fsl_smc.o
 .debug_line    0x00005976     0x10ea ./drivers/fsl_uart.o
 .debug_line    0x00006a60      0x3e7 ./device/system_MK66F18.o
 .debug_line    0x00006e47      0x3d6 ./component/uart/uart_adapter.o
 .debug_line    0x0000721d      0x5b2 ./component/serial_manager/serial_manager.o
 .debug_line    0x000077cf      0x3eb ./component/serial_manager/serial_port_uart.o
 .debug_line    0x00007bba      0x432 ./board/boards/board.o
 .debug_line    0x00007fec      0x6e3 ./board/boards/clock_config.o
 .debug_line    0x000086cf      0x363 ./board/boards/peripherals.o
 .debug_line    0x00008a32      0x64e ./board/boards/pin_mux.o
 .debug_line    0x00009080      0x464 ./accel/fsl_fxos.o

.debug_str      0x00000000    0xc14f2
 .debug_str     0x00000000    0xb5723 ./utilities/fsl_debug_console.o
                              0xb5800 (size before relaxing)
 .debug_str     0x000b5723      0x966 ./startup/startup_mk66f18.o
                               0x38d3 (size before relaxing)
 .debug_str     0x000b6089     0x4905 ./source/MK66FN2M0xxx18_Accelerometer2.o
                              0xb9872 (size before relaxing)
 .debug_str     0x000ba98e       0x3b ./source/accel.o
                              0xb64e5 (size before relaxing)
 .debug_str     0x000ba9c9       0x1f ./source/semihost_hardfault.o
                               0x2edb (size before relaxing)
 .debug_str     0x000ba9e8     0x2208 ./drivers/fsl_clock.o
                              0xb6e31 (size before relaxing)
 .debug_str     0x000bcbf0      0x189 ./drivers/fsl_gpio.o
                              0xb499f (size before relaxing)
 .debug_str     0x000bcd79     0x11e9 ./drivers/fsl_i2c.o
                              0xb5fb3 (size before relaxing)
 .debug_str     0x000bdf62      0xe71 ./drivers/fsl_lpuart.o
                              0xb6170 (size before relaxing)
 .debug_str     0x000bedd3      0x4e2 ./drivers/fsl_smc.o
                              0xb4d33 (size before relaxing)
 .debug_str     0x000bf2b5      0x93e ./drivers/fsl_uart.o
                              0xb60da (size before relaxing)
 .debug_str     0x000bfbf3       0xbd ./device/system_MK66F18.o
                              0xb32ba (size before relaxing)
 .debug_str     0x000bfcb0      0x326 ./component/uart/uart_adapter.o
                              0xb4e6d (size before relaxing)
 .debug_str     0x000bffd6      0x388 ./component/serial_manager/serial_manager.o
                              0xb47f3 (size before relaxing)
 .debug_str     0x000c035e       0xfc ./component/serial_manager/serial_port_uart.o
                              0xb48a1 (size before relaxing)
 .debug_str     0x000c045a      0x14f ./board/boards/board.o
                              0xb60a1 (size before relaxing)
 .debug_str     0x000c05a9      0x6c5 ./board/boards/clock_config.o
                              0xb5b7e (size before relaxing)
 .debug_str     0x000c0c6e       0x69 ./board/boards/peripherals.o
                              0xb533b (size before relaxing)
 .debug_str     0x000c0cd7      0x72e ./board/boards/pin_mux.o
                              0xb55f1 (size before relaxing)
 .debug_str     0x000c1405       0xed ./accel/fsl_fxos.o
                              0xb65ab (size before relaxing)

.comment        0x00000000       0x75
 .comment       0x00000000       0x75 ./utilities/fsl_debug_console.o
                                 0x76 (size before relaxing)
 .comment       0x00000075       0x76 ./startup/startup_mk66f18.o
 .comment       0x00000075       0x76 ./source/MK66FN2M0xxx18_Accelerometer2.o
 .comment       0x00000075       0x76 ./source/accel.o
 .comment       0x00000075       0x76 ./source/semihost_hardfault.o
 .comment       0x00000075       0x76 ./drivers/fsl_clock.o
 .comment       0x00000075       0x76 ./drivers/fsl_gpio.o
 .comment       0x00000075       0x76 ./drivers/fsl_i2c.o
 .comment       0x00000075       0x76 ./drivers/fsl_lpuart.o
 .comment       0x00000075       0x76 ./drivers/fsl_smc.o
 .comment       0x00000075       0x76 ./drivers/fsl_uart.o
 .comment       0x00000075       0x76 ./device/system_MK66F18.o
 .comment       0x00000075       0x76 ./component/uart/uart_adapter.o
 .comment       0x00000075       0x76 ./component/serial_manager/serial_manager.o
 .comment       0x00000075       0x76 ./component/serial_manager/serial_port_uart.o
 .comment       0x00000075       0x76 ./board/boards/board.o
 .comment       0x00000075       0x76 ./board/boards/clock_config.o
 .comment       0x00000075       0x76 ./board/boards/peripherals.o
 .comment       0x00000075       0x76 ./board/boards/pin_mux.o
 .comment       0x00000075       0x76 ./accel/fsl_fxos.o
 .comment       0x00000075       0x76 c:/nxp/mcuxpressoide_11.0.0_2516/ide/plugins/com.nxp.mcuxpresso.tools.win32_11.0.0.201905131304/tools/bin/../lib/gcc/arm-none-eabi/8.2.1/../../../../arm-none-eabi/lib/thumb/v7e-m+fp/hard\libcr_semihost_nf.a(_cr__main.o)
 .comment       0x00000075       0x76 c:/nxp/mcuxpressoide_11.0.0_2516/ide/plugins/com.nxp.mcuxpresso.tools.win32_11.0.0.201905131304/tools/bin/../lib/gcc/arm-none-eabi/8.2.1/../../../../arm-none-eabi/lib/thumb/v7e-m+fp/hard\libcr_semihost_nf.a(_cr_assert.o)
 .comment       0x00000075       0x76 c:/nxp/mcuxpressoide_11.0.0_2516/ide/plugins/com.nxp.mcuxpresso.tools.win32_11.0.0.201905131304/tools/bin/../lib/gcc/arm-none-eabi/8.2.1/../../../../arm-none-eabi/lib/thumb/v7e-m+fp/hard\libcr_semihost_nf.a(__ciob.o)
 .comment       0x00000075       0x76 c:/nxp/mcuxpressoide_11.0.0_2516/ide/plugins/com.nxp.mcuxpresso.tools.win32_11.0.0.201905131304/tools/bin/../lib/gcc/arm-none-eabi/8.2.1/../../../../arm-none-eabi/lib/thumb/v7e-m+fp/hard\libcr_c.a(memset.o)
 .comment       0x00000075       0x76 c:/nxp/mcuxpressoide_11.0.0_2516/ide/plugins/com.nxp.mcuxpresso.tools.win32_11.0.0.201905131304/tools/bin/../lib/gcc/arm-none-eabi/8.2.1/../../../../arm-none-eabi/lib/thumb/v7e-m+fp/hard\libcr_c.a(_deferredlazyseek.o)
 .comment       0x00000075       0x76 c:/nxp/mcuxpressoide_11.0.0_2516/ide/plugins/com.nxp.mcuxpresso.tools.win32_11.0.0.201905131304/tools/bin/../lib/gcc/arm-none-eabi/8.2.1/../../../../arm-none-eabi/lib/thumb/v7e-m+fp/hard\libcr_c.a(_fflush.o)
 .comment       0x00000075       0x76 c:/nxp/mcuxpressoide_11.0.0_2516/ide/plugins/com.nxp.mcuxpresso.tools.win32_11.0.0.201905131304/tools/bin/../lib/gcc/arm-none-eabi/8.2.1/../../../../arm-none-eabi/lib/thumb/v7e-m+fp/hard\libcr_c.a(_writebuf.o)
 .comment       0x00000075       0x76 c:/nxp/mcuxpressoide_11.0.0_2516/ide/plugins/com.nxp.mcuxpresso.tools.win32_11.0.0.201905131304/tools/bin/../lib/gcc/arm-none-eabi/8.2.1/../../../../arm-none-eabi/lib/thumb/v7e-m+fp/hard\libcr_c.a(alloc.o)
 .comment       0x00000075       0x76 c:/nxp/mcuxpressoide_11.0.0_2516/ide/plugins/com.nxp.mcuxpresso.tools.win32_11.0.0.201905131304/tools/bin/../lib/gcc/arm-none-eabi/8.2.1/../../../../arm-none-eabi/lib/thumb/v7e-m+fp/hard\libcr_c.a(floor.o)
 .comment       0x00000075       0x76 c:/nxp/mcuxpressoide_11.0.0_2516/ide/plugins/com.nxp.mcuxpresso.tools.win32_11.0.0.201905131304/tools/bin/../lib/gcc/arm-none-eabi/8.2.1/../../../../arm-none-eabi/lib/thumb/v7e-m+fp/hard\libcr_c.a(fputs.o)
 .comment       0x00000075       0x76 c:/nxp/mcuxpressoide_11.0.0_2516/ide/plugins/com.nxp.mcuxpresso.tools.win32_11.0.0.201905131304/tools/bin/../lib/gcc/arm-none-eabi/8.2.1/../../../../arm-none-eabi/lib/thumb/v7e-m+fp/hard\libcr_c.a(fseek.o)
 .comment       0x00000075       0x76 c:/nxp/mcuxpressoide_11.0.0_2516/ide/plugins/com.nxp.mcuxpresso.tools.win32_11.0.0.201905131304/tools/bin/../lib/gcc/arm-none-eabi/8.2.1/../../../../arm-none-eabi/lib/thumb/v7e-m+fp/hard\libcr_c.a(ftell.o)
 .comment       0x00000075       0x76 c:/nxp/mcuxpressoide_11.0.0_2516/ide/plugins/com.nxp.mcuxpresso.tools.win32_11.0.0.201905131304/tools/bin/../lib/gcc/arm-none-eabi/8.2.1/../../../../arm-none-eabi/lib/thumb/v7e-m+fp/hard\libcr_c.a(initio.o)
 .comment       0x00000075       0x76 c:/nxp/mcuxpressoide_11.0.0_2516/ide/plugins/com.nxp.mcuxpresso.tools.win32_11.0.0.201905131304/tools/bin/../lib/gcc/arm-none-eabi/8.2.1/../../../../arm-none-eabi/lib/thumb/v7e-m+fp/hard\libcr_c.a(printf.o)
 .comment       0x00000075       0x76 c:/nxp/mcuxpressoide_11.0.0_2516/ide/plugins/com.nxp.mcuxpresso.tools.win32_11.0.0.201905131304/tools/bin/../lib/gcc/arm-none-eabi/8.2.1/../../../../arm-none-eabi/lib/thumb/v7e-m+fp/hard\libcr_c.a(setvbuf.o)
 .comment       0x00000075       0x76 c:/nxp/mcuxpressoide_11.0.0_2516/ide/plugins/com.nxp.mcuxpresso.tools.win32_11.0.0.201905131304/tools/bin/../lib/gcc/arm-none-eabi/8.2.1/../../../../arm-none-eabi/lib/thumb/v7e-m+fp/hard\libcr_c.a(strlen.o)
 .comment       0x00000075       0x76 c:/nxp/mcuxpressoide_11.0.0_2516/ide/plugins/com.nxp.mcuxpresso.tools.win32_11.0.0.201905131304/tools/bin/../lib/gcc/arm-none-eabi/8.2.1/../../../../arm-none-eabi/lib/thumb/v7e-m+fp/hard\libcr_c.a(__init_alloc.o)
 .comment       0x00000075       0x76 c:/nxp/mcuxpressoide_11.0.0_2516/ide/plugins/com.nxp.mcuxpresso.tools.win32_11.0.0.201905131304/tools/bin/../lib/gcc/arm-none-eabi/8.2.1/../../../../arm-none-eabi/lib/thumb/v7e-m+fp/hard\libcr_c.a(_cr_sbrk.o)
 .comment       0x00000075       0x76 c:/nxp/mcuxpressoide_11.0.0_2516/ide/plugins/com.nxp.mcuxpresso.tools.win32_11.0.0.201905131304/tools/bin/../lib/gcc/arm-none-eabi/8.2.1/../../../../arm-none-eabi/lib/thumb/v7e-m+fp/hard\libcr_c.a(_fdopen.o)
 .comment       0x00000075       0x76 c:/nxp/mcuxpressoide_11.0.0_2516/ide/plugins/com.nxp.mcuxpresso.tools.win32_11.0.0.201905131304/tools/bin/../lib/gcc/arm-none-eabi/8.2.1/../../../../arm-none-eabi/lib/thumb/v7e-m+fp/hard\libcr_c.a(errno.o)
 .comment       0x00000075       0x76 c:/nxp/mcuxpressoide_11.0.0_2516/ide/plugins/com.nxp.mcuxpresso.tools.win32_11.0.0.201905131304/tools/bin/../lib/gcc/arm-none-eabi/8.2.1/../../../../arm-none-eabi/lib/thumb/v7e-m+fp/hard\libcr_c.a(fclose.o)
 .comment       0x00000075       0x76 c:/nxp/mcuxpressoide_11.0.0_2516/ide/plugins/com.nxp.mcuxpresso.tools.win32_11.0.0.201905131304/tools/bin/../lib/gcc/arm-none-eabi/8.2.1/../../../../arm-none-eabi/lib/thumb/v7e-m+fp/hard\libcr_c.a(fflush.o)
 .comment       0x00000075       0x76 c:/nxp/mcuxpressoide_11.0.0_2516/ide/plugins/com.nxp.mcuxpresso.tools.win32_11.0.0.201905131304/tools/bin/../lib/gcc/arm-none-eabi/8.2.1/../../../../arm-none-eabi/lib/thumb/v7e-m+fp/hard\libcr_c.a(remove.o)
 .comment       0x00000075       0x76 c:/nxp/mcuxpressoide_11.0.0_2516/ide/plugins/com.nxp.mcuxpresso.tools.win32_11.0.0.201905131304/tools/bin/../lib/gcc/arm-none-eabi/8.2.1/../../../../arm-none-eabi/lib/thumb/v7e-m+fp/hard\libcr_c.a(_cr_check_heap.o)
 .comment       0x00000075       0x76 c:/nxp/mcuxpressoide_11.0.0_2516/ide/plugins/com.nxp.mcuxpresso.tools.win32_11.0.0.201905131304/tools/bin/../lib/gcc/arm-none-eabi/8.2.1/../../../../arm-none-eabi/lib/thumb/v7e-m+fp/hard\libcr_c.a(_do_fflush.o)
 .comment       0x00000075       0x76 c:/nxp/mcuxpressoide_11.0.0_2516/ide/plugins/com.nxp.mcuxpresso.tools.win32_11.0.0.201905131304/tools/bin/../lib/gcc/arm-none-eabi/8.2.1/thumb/v7e-m+fp/hard\libcr_eabihelpers.a(double.o)

.ARM.attributes
                0x00000000       0x32
 .ARM.attributes
                0x00000000       0x34 ./utilities/fsl_debug_console.o
 .ARM.attributes
                0x00000034       0x34 ./startup/startup_mk66f18.o
 .ARM.attributes
                0x00000068       0x34 ./source/MK66FN2M0xxx18_Accelerometer2.o
 .ARM.attributes
                0x0000009c       0x34 ./source/accel.o
 .ARM.attributes
                0x000000d0       0x34 ./source/semihost_hardfault.o
 .ARM.attributes
                0x00000104       0x34 ./drivers/fsl_clock.o
 .ARM.attributes
                0x00000138       0x34 ./drivers/fsl_gpio.o
 .ARM.attributes
                0x0000016c       0x34 ./drivers/fsl_i2c.o
 .ARM.attributes
                0x000001a0       0x34 ./drivers/fsl_lpuart.o
 .ARM.attributes
                0x000001d4       0x34 ./drivers/fsl_smc.o
 .ARM.attributes
                0x00000208       0x34 ./drivers/fsl_uart.o
 .ARM.attributes
                0x0000023c       0x34 ./device/system_MK66F18.o
 .ARM.attributes
                0x00000270       0x34 ./component/uart/uart_adapter.o
 .ARM.attributes
                0x000002a4       0x34 ./component/serial_manager/serial_manager.o
 .ARM.attributes
                0x000002d8       0x34 ./component/serial_manager/serial_port_uart.o
 .ARM.attributes
                0x0000030c       0x34 ./board/boards/board.o
 .ARM.attributes
                0x00000340       0x34 ./board/boards/clock_config.o
 .ARM.attributes
                0x00000374       0x34 ./board/boards/peripherals.o
 .ARM.attributes
                0x000003a8       0x34 ./board/boards/pin_mux.o
 .ARM.attributes
                0x000003dc       0x34 ./accel/fsl_fxos.o
 .ARM.attributes
                0x00000410       0x34 c:/nxp/mcuxpressoide_11.0.0_2516/ide/plugins/com.nxp.mcuxpresso.tools.win32_11.0.0.201905131304/tools/bin/../lib/gcc/arm-none-eabi/8.2.1/../../../../arm-none-eabi/lib/thumb/v7e-m+fp/hard\libcr_semihost_nf.a(_cr__main.o)
 .ARM.attributes
                0x00000444       0x34 c:/nxp/mcuxpressoide_11.0.0_2516/ide/plugins/com.nxp.mcuxpresso.tools.win32_11.0.0.201905131304/tools/bin/../lib/gcc/arm-none-eabi/8.2.1/../../../../arm-none-eabi/lib/thumb/v7e-m+fp/hard\libcr_semihost_nf.a(_cr_assert.o)
 .ARM.attributes
                0x00000478       0x39 c:/nxp/mcuxpressoide_11.0.0_2516/ide/plugins/com.nxp.mcuxpresso.tools.win32_11.0.0.201905131304/tools/bin/../lib/gcc/arm-none-eabi/8.2.1/../../../../arm-none-eabi/lib/thumb/v7e-m+fp/hard\libcr_semihost_nf.a(__ciob.o)
 .ARM.attributes
                0x000004b1       0x20 c:/nxp/mcuxpressoide_11.0.0_2516/ide/plugins/com.nxp.mcuxpresso.tools.win32_11.0.0.201905131304/tools/bin/../lib/gcc/arm-none-eabi/8.2.1/../../../../arm-none-eabi/lib/thumb/v7e-m+fp/hard\libcr_semihost_nf.a(__sys_appexit.o)
 .ARM.attributes
                0x000004d1       0x34 c:/nxp/mcuxpressoide_11.0.0_2516/ide/plugins/com.nxp.mcuxpresso.tools.win32_11.0.0.201905131304/tools/bin/../lib/gcc/arm-none-eabi/8.2.1/../../../../arm-none-eabi/lib/thumb/v7e-m+fp/hard\libcr_c.a(memset.o)
 .ARM.attributes
                0x00000505       0x34 c:/nxp/mcuxpressoide_11.0.0_2516/ide/plugins/com.nxp.mcuxpresso.tools.win32_11.0.0.201905131304/tools/bin/../lib/gcc/arm-none-eabi/8.2.1/../../../../arm-none-eabi/lib/thumb/v7e-m+fp/hard\libcr_c.a(_deferredlazyseek.o)
 .ARM.attributes
                0x00000539       0x34 c:/nxp/mcuxpressoide_11.0.0_2516/ide/plugins/com.nxp.mcuxpresso.tools.win32_11.0.0.201905131304/tools/bin/../lib/gcc/arm-none-eabi/8.2.1/../../../../arm-none-eabi/lib/thumb/v7e-m+fp/hard\libcr_c.a(_fflush.o)
 .ARM.attributes
                0x0000056d       0x34 c:/nxp/mcuxpressoide_11.0.0_2516/ide/plugins/com.nxp.mcuxpresso.tools.win32_11.0.0.201905131304/tools/bin/../lib/gcc/arm-none-eabi/8.2.1/../../../../arm-none-eabi/lib/thumb/v7e-m+fp/hard\libcr_c.a(_writebuf.o)
 .ARM.attributes
                0x000005a1       0x34 c:/nxp/mcuxpressoide_11.0.0_2516/ide/plugins/com.nxp.mcuxpresso.tools.win32_11.0.0.201905131304/tools/bin/../lib/gcc/arm-none-eabi/8.2.1/../../../../arm-none-eabi/lib/thumb/v7e-m+fp/hard\libcr_c.a(alloc.o)
 .ARM.attributes
                0x000005d5       0x34 c:/nxp/mcuxpressoide_11.0.0_2516/ide/plugins/com.nxp.mcuxpresso.tools.win32_11.0.0.201905131304/tools/bin/../lib/gcc/arm-none-eabi/8.2.1/../../../../arm-none-eabi/lib/thumb/v7e-m+fp/hard\libcr_c.a(floor.o)
 .ARM.attributes
                0x00000609       0x34 c:/nxp/mcuxpressoide_11.0.0_2516/ide/plugins/com.nxp.mcuxpresso.tools.win32_11.0.0.201905131304/tools/bin/../lib/gcc/arm-none-eabi/8.2.1/../../../../arm-none-eabi/lib/thumb/v7e-m+fp/hard\libcr_c.a(fputs.o)
 .ARM.attributes
                0x0000063d       0x34 c:/nxp/mcuxpressoide_11.0.0_2516/ide/plugins/com.nxp.mcuxpresso.tools.win32_11.0.0.201905131304/tools/bin/../lib/gcc/arm-none-eabi/8.2.1/../../../../arm-none-eabi/lib/thumb/v7e-m+fp/hard\libcr_c.a(fseek.o)
 .ARM.attributes
                0x00000671       0x34 c:/nxp/mcuxpressoide_11.0.0_2516/ide/plugins/com.nxp.mcuxpresso.tools.win32_11.0.0.201905131304/tools/bin/../lib/gcc/arm-none-eabi/8.2.1/../../../../arm-none-eabi/lib/thumb/v7e-m+fp/hard\libcr_c.a(ftell.o)
 .ARM.attributes
                0x000006a5       0x34 c:/nxp/mcuxpressoide_11.0.0_2516/ide/plugins/com.nxp.mcuxpresso.tools.win32_11.0.0.201905131304/tools/bin/../lib/gcc/arm-none-eabi/8.2.1/../../../../arm-none-eabi/lib/thumb/v7e-m+fp/hard\libcr_c.a(initio.o)
 .ARM.attributes
                0x000006d9       0x34 c:/nxp/mcuxpressoide_11.0.0_2516/ide/plugins/com.nxp.mcuxpresso.tools.win32_11.0.0.201905131304/tools/bin/../lib/gcc/arm-none-eabi/8.2.1/../../../../arm-none-eabi/lib/thumb/v7e-m+fp/hard\libcr_c.a(printf.o)
 .ARM.attributes
                0x0000070d       0x34 c:/nxp/mcuxpressoide_11.0.0_2516/ide/plugins/com.nxp.mcuxpresso.tools.win32_11.0.0.201905131304/tools/bin/../lib/gcc/arm-none-eabi/8.2.1/../../../../arm-none-eabi/lib/thumb/v7e-m+fp/hard\libcr_c.a(setvbuf.o)
 .ARM.attributes
                0x00000741       0x34 c:/nxp/mcuxpressoide_11.0.0_2516/ide/plugins/com.nxp.mcuxpresso.tools.win32_11.0.0.201905131304/tools/bin/../lib/gcc/arm-none-eabi/8.2.1/../../../../arm-none-eabi/lib/thumb/v7e-m+fp/hard\libcr_c.a(strlen.o)
 .ARM.attributes
                0x00000775       0x34 c:/nxp/mcuxpressoide_11.0.0_2516/ide/plugins/com.nxp.mcuxpresso.tools.win32_11.0.0.201905131304/tools/bin/../lib/gcc/arm-none-eabi/8.2.1/../../../../arm-none-eabi/lib/thumb/v7e-m+fp/hard\libcr_c.a(__init_alloc.o)
 .ARM.attributes
                0x000007a9       0x34 c:/nxp/mcuxpressoide_11.0.0_2516/ide/plugins/com.nxp.mcuxpresso.tools.win32_11.0.0.201905131304/tools/bin/../lib/gcc/arm-none-eabi/8.2.1/../../../../arm-none-eabi/lib/thumb/v7e-m+fp/hard\libcr_c.a(_cr_sbrk.o)
 .ARM.attributes
                0x000007dd       0x34 c:/nxp/mcuxpressoide_11.0.0_2516/ide/plugins/com.nxp.mcuxpresso.tools.win32_11.0.0.201905131304/tools/bin/../lib/gcc/arm-none-eabi/8.2.1/../../../../arm-none-eabi/lib/thumb/v7e-m+fp/hard\libcr_c.a(_fdopen.o)
 .ARM.attributes
                0x00000811       0x39 c:/nxp/mcuxpressoide_11.0.0_2516/ide/plugins/com.nxp.mcuxpresso.tools.win32_11.0.0.201905131304/tools/bin/../lib/gcc/arm-none-eabi/8.2.1/../../../../arm-none-eabi/lib/thumb/v7e-m+fp/hard\libcr_c.a(errno.o)
 .ARM.attributes
                0x0000084a       0x34 c:/nxp/mcuxpressoide_11.0.0_2516/ide/plugins/com.nxp.mcuxpresso.tools.win32_11.0.0.201905131304/tools/bin/../lib/gcc/arm-none-eabi/8.2.1/../../../../arm-none-eabi/lib/thumb/v7e-m+fp/hard\libcr_c.a(fclose.o)
 .ARM.attributes
                0x0000087e       0x34 c:/nxp/mcuxpressoide_11.0.0_2516/ide/plugins/com.nxp.mcuxpresso.tools.win32_11.0.0.201905131304/tools/bin/../lib/gcc/arm-none-eabi/8.2.1/../../../../arm-none-eabi/lib/thumb/v7e-m+fp/hard\libcr_c.a(fflush.o)
 .ARM.attributes
                0x000008b2       0x34 c:/nxp/mcuxpressoide_11.0.0_2516/ide/plugins/com.nxp.mcuxpresso.tools.win32_11.0.0.201905131304/tools/bin/../lib/gcc/arm-none-eabi/8.2.1/../../../../arm-none-eabi/lib/thumb/v7e-m+fp/hard\libcr_c.a(remove.o)
 .ARM.attributes
                0x000008e6       0x34 c:/nxp/mcuxpressoide_11.0.0_2516/ide/plugins/com.nxp.mcuxpresso.tools.win32_11.0.0.201905131304/tools/bin/../lib/gcc/arm-none-eabi/8.2.1/../../../../arm-none-eabi/lib/thumb/v7e-m+fp/hard\libcr_c.a(_cr_check_heap.o)
 .ARM.attributes
                0x0000091a       0x34 c:/nxp/mcuxpressoide_11.0.0_2516/ide/plugins/com.nxp.mcuxpresso.tools.win32_11.0.0.201905131304/tools/bin/../lib/gcc/arm-none-eabi/8.2.1/../../../../arm-none-eabi/lib/thumb/v7e-m+fp/hard\libcr_c.a(_do_fflush.o)
 .ARM.attributes
                0x0000094e       0x34 c:/nxp/mcuxpressoide_11.0.0_2516/ide/plugins/com.nxp.mcuxpresso.tools.win32_11.0.0.201905131304/tools/bin/../lib/gcc/arm-none-eabi/8.2.1/thumb/v7e-m+fp/hard\libcr_eabihelpers.a(double.o)
 .ARM.attributes
                0x00000982       0x20 c:/nxp/mcuxpressoide_11.0.0_2516/ide/plugins/com.nxp.mcuxpresso.tools.win32_11.0.0.201905131304/tools/bin/../lib/gcc/arm-none-eabi/8.2.1/thumb/v7e-m+fp/hard\libcr_eabihelpers.a(memcpy.o)
 .ARM.attributes
                0x000009a2       0x20 c:/nxp/mcuxpressoide_11.0.0_2516/ide/plugins/com.nxp.mcuxpresso.tools.win32_11.0.0.201905131304/tools/bin/../lib/gcc/arm-none-eabi/8.2.1/../../../../arm-none-eabi/lib/thumb/v7e-m+fp/hard\libcr_semihost_nf.a(__sys_close.o)
 .ARM.attributes
                0x000009c2       0x20 c:/nxp/mcuxpressoide_11.0.0_2516/ide/plugins/com.nxp.mcuxpresso.tools.win32_11.0.0.201905131304/tools/bin/../lib/gcc/arm-none-eabi/8.2.1/../../../../arm-none-eabi/lib/thumb/v7e-m+fp/hard\libcr_semihost_nf.a(__sys_flen.o)
 .ARM.attributes
                0x000009e2       0x20 c:/nxp/mcuxpressoide_11.0.0_2516/ide/plugins/com.nxp.mcuxpresso.tools.win32_11.0.0.201905131304/tools/bin/../lib/gcc/arm-none-eabi/8.2.1/../../../../arm-none-eabi/lib/thumb/v7e-m+fp/hard\libcr_semihost_nf.a(__sys_istty.o)
 .ARM.attributes
                0x00000a02       0x20 c:/nxp/mcuxpressoide_11.0.0_2516/ide/plugins/com.nxp.mcuxpresso.tools.win32_11.0.0.201905131304/tools/bin/../lib/gcc/arm-none-eabi/8.2.1/../../../../arm-none-eabi/lib/thumb/v7e-m+fp/hard\libcr_semihost_nf.a(__sys_remove.o)
 .ARM.attributes
                0x00000a22       0x20 c:/nxp/mcuxpressoide_11.0.0_2516/ide/plugins/com.nxp.mcuxpresso.tools.win32_11.0.0.201905131304/tools/bin/../lib/gcc/arm-none-eabi/8.2.1/../../../../arm-none-eabi/lib/thumb/v7e-m+fp/hard\libcr_semihost_nf.a(__sys_seek.o)
 .ARM.attributes
                0x00000a42       0x20 c:/nxp/mcuxpressoide_11.0.0_2516/ide/plugins/com.nxp.mcuxpresso.tools.win32_11.0.0.201905131304/tools/bin/../lib/gcc/arm-none-eabi/8.2.1/../../../../arm-none-eabi/lib/thumb/v7e-m+fp/hard\libcr_semihost_nf.a(__sys_tmpnam.o)
 .ARM.attributes
                0x00000a62       0x20 c:/nxp/mcuxpressoide_11.0.0_2516/ide/plugins/com.nxp.mcuxpresso.tools.win32_11.0.0.201905131304/tools/bin/../lib/gcc/arm-none-eabi/8.2.1/../../../../arm-none-eabi/lib/thumb/v7e-m+fp/hard\libcr_semihost_nf.a(__sys_write.o)

.debug_frame    0x00000000     0x3734
 .debug_frame   0x00000000      0x104 ./utilities/fsl_debug_console.o
 .debug_frame   0x00000104      0xa54 ./startup/startup_mk66f18.o
 .debug_frame   0x00000b58       0xa4 ./source/MK66FN2M0xxx18_Accelerometer2.o
 .debug_frame   0x00000bfc       0x58 ./source/accel.o
 .debug_frame   0x00000c54       0x20 ./source/semihost_hardfault.o
 .debug_frame   0x00000c74      0x9f0 ./drivers/fsl_clock.o
 .debug_frame   0x00001664       0xc8 ./drivers/fsl_gpio.o
 .debug_frame   0x0000172c      0x6b0 ./drivers/fsl_i2c.o
 .debug_frame   0x00001ddc      0x4b4 ./drivers/fsl_lpuart.o
 .debug_frame   0x00002290      0x24c ./drivers/fsl_smc.o
 .debug_frame   0x000024dc      0x5b4 ./drivers/fsl_uart.o
 .debug_frame   0x00002a90       0x74 ./device/system_MK66F18.o
 .debug_frame   0x00002b04       0xc8 ./component/uart/uart_adapter.o
 .debug_frame   0x00002bcc      0x208 ./component/serial_manager/serial_manager.o
 .debug_frame   0x00002dd4       0xa0 ./component/serial_manager/serial_port_uart.o
 .debug_frame   0x00002e74      0x168 ./board/boards/board.o
 .debug_frame   0x00002fdc      0x39c ./board/boards/clock_config.o
 .debug_frame   0x00003378       0xcc ./board/boards/peripherals.o
 .debug_frame   0x00003444      0x248 ./board/boards/pin_mux.o
 .debug_frame   0x0000368c       0xa8 ./accel/fsl_fxos.o

Cross Reference Table

Symbol                                            File
ACCEL_GPIO_init                                   ./board/boards/peripherals.o
ACCEL_config                                      ./board/boards/peripherals.o
ACCEL_init                                        ./board/boards/peripherals.o
ADC0_DriverIRQHandler                             ./startup/startup_mk66f18.o
ADC0_IRQHandler                                   ./startup/startup_mk66f18.o
ADC1_DriverIRQHandler                             ./startup/startup_mk66f18.o
ADC1_IRQHandler                                   ./startup/startup_mk66f18.o
BOARD_Accel_I2C_Init                              ./board/boards/board.o
BOARD_Accel_I2C_Receive                           ./board/boards/board.o
                                                  ./source/MK66FN2M0xxx18_Accelerometer2.o
BOARD_Accel_I2C_Send                              ./board/boards/board.o
                                                  ./source/MK66FN2M0xxx18_Accelerometer2.o
BOARD_BootClockHSRUN                              ./board/boards/clock_config.o
BOARD_BootClockVLPR                               ./board/boards/clock_config.o
BOARD_Codec_I2C_Init                              ./board/boards/board.o
BOARD_Codec_I2C_Receive                           ./board/boards/board.o
BOARD_Codec_I2C_Send                              ./board/boards/board.o
BOARD_I2C_Init                                    ./board/boards/board.o
BOARD_I2C_Receive                                 ./board/boards/board.o
                                                  ./source/MK66FN2M0xxx18_Accelerometer2.o
BOARD_I2C_Send                                    ./board/boards/board.o
BOARD_InitACCEL_I2CPins                           ./board/boards/pin_mux.o
BOARD_InitBUTTONsPins                             ./board/boards/pin_mux.o
BOARD_InitBootClocks                              ./board/boards/clock_config.o
                                                  ./source/MK66FN2M0xxx18_Accelerometer2.o
BOARD_InitBootPeripherals                         ./board/boards/peripherals.o
                                                  ./source/MK66FN2M0xxx18_Accelerometer2.o
BOARD_InitBootPins                                ./board/boards/pin_mux.o
                                                  ./source/MK66FN2M0xxx18_Accelerometer2.o
BOARD_InitDEBUG_UARTPins                          ./board/boards/pin_mux.o
BOARD_InitDebugConsole                            ./board/boards/board.o
                                                  ./source/MK66FN2M0xxx18_Accelerometer2.o
BOARD_InitENETPins                                ./board/boards/pin_mux.o
BOARD_InitGYRO_I2CPins                            ./board/boards/pin_mux.o
BOARD_InitLEDsPins                                ./board/boards/pin_mux.o
BOARD_InitOSCsPins                                ./board/boards/pin_mux.o
BOARD_InitPeripherals                             ./board/boards/peripherals.o
BOARD_InitPins                                    ./board/boards/pin_mux.o
BOARD_InitSDHC0Pins                               ./board/boards/pin_mux.o
BOARD_InitUSBPins                                 ./board/boards/pin_mux.o
BusFault_Handler                                  ./startup/startup_mk66f18.o
CAN0_Bus_Off_IRQHandler                           ./startup/startup_mk66f18.o
CAN0_DriverIRQHandler                             ./startup/startup_mk66f18.o
CAN0_Error_IRQHandler                             ./startup/startup_mk66f18.o
CAN0_ORed_Message_buffer_IRQHandler               ./startup/startup_mk66f18.o
CAN0_Rx_Warning_IRQHandler                        ./startup/startup_mk66f18.o
CAN0_Tx_Warning_IRQHandler                        ./startup/startup_mk66f18.o
CAN0_Wake_Up_IRQHandler                           ./startup/startup_mk66f18.o
CAN1_Bus_Off_IRQHandler                           ./startup/startup_mk66f18.o
CAN1_DriverIRQHandler                             ./startup/startup_mk66f18.o
CAN1_Error_IRQHandler                             ./startup/startup_mk66f18.o
CAN1_ORed_Message_buffer_IRQHandler               ./startup/startup_mk66f18.o
CAN1_Rx_Warning_IRQHandler                        ./startup/startup_mk66f18.o
CAN1_Tx_Warning_IRQHandler                        ./startup/startup_mk66f18.o
CAN1_Wake_Up_IRQHandler                           ./startup/startup_mk66f18.o
CLOCK_BootToBlpeMode                              ./drivers/fsl_clock.o
CLOCK_BootToBlpiMode                              ./drivers/fsl_clock.o
                                                  ./board/boards/clock_config.o
CLOCK_BootToFeeMode                               ./drivers/fsl_clock.o
CLOCK_BootToFeiMode                               ./drivers/fsl_clock.o
CLOCK_BootToPeeMode                               ./drivers/fsl_clock.o
                                                  ./board/boards/clock_config.o
CLOCK_CalcPllDiv                                  ./drivers/fsl_clock.o
CLOCK_ClearStatusFlags                            ./drivers/fsl_clock.o
CLOCK_DeinitOsc0                                  ./drivers/fsl_clock.o
CLOCK_DisableUsbhs0Clock                          ./drivers/fsl_clock.o
CLOCK_DisableUsbhs0PfdClock                       ./drivers/fsl_clock.o
CLOCK_DisableUsbhs0PhyPllClock                    ./drivers/fsl_clock.o
CLOCK_EnablePll0                                  ./drivers/fsl_clock.o
CLOCK_EnableUsbfs0Clock                           ./drivers/fsl_clock.o
                                                  ./board/boards/clock_config.o
CLOCK_EnableUsbhs0Clock                           ./drivers/fsl_clock.o
CLOCK_EnableUsbhs0PfdClock                        ./drivers/fsl_clock.o
CLOCK_EnableUsbhs0PhyPllClock                     ./drivers/fsl_clock.o
CLOCK_ExternalModeToFbeModeQuick                  ./drivers/fsl_clock.o
CLOCK_GetBusClkFreq                               ./drivers/fsl_clock.o
CLOCK_GetCoreSysClkFreq                           ./drivers/fsl_clock.o
                                                  ./board/boards/board.o
CLOCK_GetEr32kClkFreq                             ./drivers/fsl_clock.o
CLOCK_GetExtPllFreq                               ./drivers/fsl_clock.o
CLOCK_GetFixedFreqClkFreq                         ./drivers/fsl_clock.o
CLOCK_GetFlashClkFreq                             ./drivers/fsl_clock.o
CLOCK_GetFlexBusClkFreq                           ./drivers/fsl_clock.o
CLOCK_GetFllFreq                                  ./drivers/fsl_clock.o
CLOCK_GetFreq                                     ./drivers/fsl_clock.o
                                                  ./board/boards/peripherals.o
                                                  ./board/boards/board.o
CLOCK_GetInternalRefClkFreq                       ./drivers/fsl_clock.o
CLOCK_GetMode                                     ./drivers/fsl_clock.o
CLOCK_GetOsc0ErClkDivFreq                         ./drivers/fsl_clock.o
CLOCK_GetOsc0ErClkFreq                            ./drivers/fsl_clock.o
CLOCK_GetOsc0ErClkUndivFreq                       ./drivers/fsl_clock.o
CLOCK_GetOutClkFreq                               ./drivers/fsl_clock.o
CLOCK_GetPlatClkFreq                              ./drivers/fsl_clock.o
CLOCK_GetPll0Freq                                 ./drivers/fsl_clock.o
CLOCK_GetPllFllSelClkFreq                         ./drivers/fsl_clock.o
CLOCK_GetStatusFlags                              ./drivers/fsl_clock.o
CLOCK_InitOsc0                                    ./drivers/fsl_clock.o
                                                  ./board/boards/clock_config.o
CLOCK_InternalModeToFbiModeQuick                  ./drivers/fsl_clock.o
CLOCK_SetBlpeMode                                 ./drivers/fsl_clock.o
CLOCK_SetBlpiMode                                 ./drivers/fsl_clock.o
CLOCK_SetExtPllFreq                               ./drivers/fsl_clock.o
                                                  ./board/boards/clock_config.o
CLOCK_SetExtPllMonitorMode                        ./drivers/fsl_clock.o
CLOCK_SetExternalRefClkConfig                     ./drivers/fsl_clock.o
                                                  ./board/boards/clock_config.o
CLOCK_SetFbeMode                                  ./drivers/fsl_clock.o
CLOCK_SetFbiMode                                  ./drivers/fsl_clock.o
CLOCK_SetFeeMode                                  ./drivers/fsl_clock.o
CLOCK_SetFeiMode                                  ./drivers/fsl_clock.o
CLOCK_SetInternalRefClkConfig                     ./drivers/fsl_clock.o
                                                  ./board/boards/clock_config.o
CLOCK_SetMcgConfig                                ./drivers/fsl_clock.o
CLOCK_SetOsc0MonitorMode                          ./drivers/fsl_clock.o
CLOCK_SetPbeMode                                  ./drivers/fsl_clock.o
CLOCK_SetPeeMode                                  ./drivers/fsl_clock.o
CLOCK_SetPll0MonitorMode                          ./drivers/fsl_clock.o
CLOCK_SetPllClkSel                                ./drivers/fsl_clock.o
CLOCK_SetRtcOscMonitorMode                        ./drivers/fsl_clock.o
CLOCK_SetSimConfig                                ./drivers/fsl_clock.o
                                                  ./board/boards/clock_config.o
CLOCK_TrimInternalRefClk                          ./drivers/fsl_clock.o
CMP0_DriverIRQHandler                             ./startup/startup_mk66f18.o
CMP0_IRQHandler                                   ./startup/startup_mk66f18.o
CMP1_DriverIRQHandler                             ./startup/startup_mk66f18.o
CMP1_IRQHandler                                   ./startup/startup_mk66f18.o
CMP2_DriverIRQHandler                             ./startup/startup_mk66f18.o
CMP2_IRQHandler                                   ./startup/startup_mk66f18.o
CMP3_DriverIRQHandler                             ./startup/startup_mk66f18.o
CMP3_IRQHandler                                   ./startup/startup_mk66f18.o
CMT_DriverIRQHandler                              ./startup/startup_mk66f18.o
CMT_IRQHandler                                    ./startup/startup_mk66f18.o
DAC0_DriverIRQHandler                             ./startup/startup_mk66f18.o
DAC0_IRQHandler                                   ./startup/startup_mk66f18.o
DAC1_DriverIRQHandler                             ./startup/startup_mk66f18.o
DAC1_IRQHandler                                   ./startup/startup_mk66f18.o
DMA0_DMA16_DriverIRQHandler                       ./startup/startup_mk66f18.o
DMA0_DMA16_IRQHandler                             ./startup/startup_mk66f18.o
DMA10_DMA26_DriverIRQHandler                      ./startup/startup_mk66f18.o
DMA10_DMA26_IRQHandler                            ./startup/startup_mk66f18.o
DMA11_DMA27_DriverIRQHandler                      ./startup/startup_mk66f18.o
DMA11_DMA27_IRQHandler                            ./startup/startup_mk66f18.o
DMA12_DMA28_DriverIRQHandler                      ./startup/startup_mk66f18.o
DMA12_DMA28_IRQHandler                            ./startup/startup_mk66f18.o
DMA13_DMA29_DriverIRQHandler                      ./startup/startup_mk66f18.o
DMA13_DMA29_IRQHandler                            ./startup/startup_mk66f18.o
DMA14_DMA30_DriverIRQHandler                      ./startup/startup_mk66f18.o
DMA14_DMA30_IRQHandler                            ./startup/startup_mk66f18.o
DMA15_DMA31_DriverIRQHandler                      ./startup/startup_mk66f18.o
DMA15_DMA31_IRQHandler                            ./startup/startup_mk66f18.o
DMA1_DMA17_DriverIRQHandler                       ./startup/startup_mk66f18.o
DMA1_DMA17_IRQHandler                             ./startup/startup_mk66f18.o
DMA2_DMA18_DriverIRQHandler                       ./startup/startup_mk66f18.o
DMA2_DMA18_IRQHandler                             ./startup/startup_mk66f18.o
DMA3_DMA19_DriverIRQHandler                       ./startup/startup_mk66f18.o
DMA3_DMA19_IRQHandler                             ./startup/startup_mk66f18.o
DMA4_DMA20_DriverIRQHandler                       ./startup/startup_mk66f18.o
DMA4_DMA20_IRQHandler                             ./startup/startup_mk66f18.o
DMA5_DMA21_DriverIRQHandler                       ./startup/startup_mk66f18.o
DMA5_DMA21_IRQHandler                             ./startup/startup_mk66f18.o
DMA6_DMA22_DriverIRQHandler                       ./startup/startup_mk66f18.o
DMA6_DMA22_IRQHandler                             ./startup/startup_mk66f18.o
DMA7_DMA23_DriverIRQHandler                       ./startup/startup_mk66f18.o
DMA7_DMA23_IRQHandler                             ./startup/startup_mk66f18.o
DMA8_DMA24_DriverIRQHandler                       ./startup/startup_mk66f18.o
DMA8_DMA24_IRQHandler                             ./startup/startup_mk66f18.o
DMA9_DMA25_DriverIRQHandler                       ./startup/startup_mk66f18.o
DMA9_DMA25_IRQHandler                             ./startup/startup_mk66f18.o
DMA_Error_DriverIRQHandler                        ./startup/startup_mk66f18.o
DMA_Error_IRQHandler                              ./startup/startup_mk66f18.o
DbgConsole_Deinit                                 ./utilities/fsl_debug_console.o
DbgConsole_Init                                   ./utilities/fsl_debug_console.o
                                                  ./board/boards/board.o
DbgConsole_ReadCharacter                          ./utilities/fsl_debug_console.o
DbgConsole_ReadLine                               ./utilities/fsl_debug_console.o
DbgConsole_ReadOneCharacter                       ./utilities/fsl_debug_console.o
DbgConsole_SendData                               ./utilities/fsl_debug_console.o
DbgConsole_SendDataReliable                       ./utilities/fsl_debug_console.o
DebugMon_Handler                                  ./startup/startup_mk66f18.o
ENET_1588_Timer_DriverIRQHandler                  ./startup/startup_mk66f18.o
ENET_1588_Timer_IRQHandler                        ./startup/startup_mk66f18.o
ENET_Error_DriverIRQHandler                       ./startup/startup_mk66f18.o
ENET_Error_IRQHandler                             ./startup/startup_mk66f18.o
ENET_Receive_DriverIRQHandler                     ./startup/startup_mk66f18.o
ENET_Receive_IRQHandler                           ./startup/startup_mk66f18.o
ENET_Transmit_DriverIRQHandler                    ./startup/startup_mk66f18.o
ENET_Transmit_IRQHandler                          ./startup/startup_mk66f18.o
FTFE_DriverIRQHandler                             ./startup/startup_mk66f18.o
FTFE_IRQHandler                                   ./startup/startup_mk66f18.o
FTM0_DriverIRQHandler                             ./startup/startup_mk66f18.o
FTM0_IRQHandler                                   ./startup/startup_mk66f18.o
FTM1_DriverIRQHandler                             ./startup/startup_mk66f18.o
FTM1_IRQHandler                                   ./startup/startup_mk66f18.o
FTM2_DriverIRQHandler                             ./startup/startup_mk66f18.o
FTM2_IRQHandler                                   ./startup/startup_mk66f18.o
FTM3_DriverIRQHandler                             ./startup/startup_mk66f18.o
FTM3_IRQHandler                                   ./startup/startup_mk66f18.o
FXOS_Init                                         ./accel/fsl_fxos.o
FXOS_ReadReg                                      ./accel/fsl_fxos.o
                                                  ./source/accel.o
FXOS_ReadSensorData                               ./accel/fsl_fxos.o
FXOS_WriteReg                                     ./accel/fsl_fxos.o
                                                  ./source/accel.o
Flash_Config                                      ./startup/startup_mk66f18.o
GPIO_PinInit                                      ./drivers/fsl_gpio.o
                                                  ./board/boards/pin_mux.o
GPIO_PortClearInterruptFlags                      ./drivers/fsl_gpio.o
                                                  ./source/MK66FN2M0xxx18_Accelerometer2.o
GPIO_PortGetInterruptFlags                        ./drivers/fsl_gpio.o
HAL_UartDeinit                                    ./component/uart/uart_adapter.o
                                                  ./component/serial_manager/serial_port_uart.o
HAL_UartInit                                      ./component/uart/uart_adapter.o
                                                  ./component/serial_manager/serial_port_uart.o
HAL_UartReceiveBlocking                           ./component/uart/uart_adapter.o
                                                  ./component/serial_manager/serial_port_uart.o
HAL_UartSendBlocking                              ./component/uart/uart_adapter.o
                                                  ./component/serial_manager/serial_port_uart.o
HardFault_Handler                                 ./source/semihost_hardfault.o
                                                  ./startup/startup_mk66f18.o
I2C0_DriverIRQHandler                             ./drivers/fsl_i2c.o
                                                  ./startup/startup_mk66f18.o
I2C0_IRQHandler                                   ./startup/startup_mk66f18.o
I2C1_DriverIRQHandler                             ./drivers/fsl_i2c.o
                                                  ./startup/startup_mk66f18.o
I2C1_IRQHandler                                   ./startup/startup_mk66f18.o
I2C2_DriverIRQHandler                             ./drivers/fsl_i2c.o
                                                  ./startup/startup_mk66f18.o
I2C2_IRQHandler                                   ./startup/startup_mk66f18.o
I2C3_DriverIRQHandler                             ./drivers/fsl_i2c.o
                                                  ./startup/startup_mk66f18.o
I2C3_IRQHandler                                   ./startup/startup_mk66f18.o
I2C_DisableInterrupts                             ./drivers/fsl_i2c.o
I2C_EnableInterrupts                              ./drivers/fsl_i2c.o
I2C_GetInstance                                   ./drivers/fsl_i2c.o
I2C_MasterDeinit                                  ./drivers/fsl_i2c.o
I2C_MasterGetDefaultConfig                        ./drivers/fsl_i2c.o
                                                  ./board/boards/board.o
I2C_MasterGetStatusFlags                          ./drivers/fsl_i2c.o
I2C_MasterInit                                    ./drivers/fsl_i2c.o
                                                  ./board/boards/peripherals.o
                                                  ./board/boards/board.o
I2C_MasterReadBlocking                            ./drivers/fsl_i2c.o
I2C_MasterRepeatedStart                           ./drivers/fsl_i2c.o
I2C_MasterSetBaudRate                             ./drivers/fsl_i2c.o
I2C_MasterStart                                   ./drivers/fsl_i2c.o
I2C_MasterStop                                    ./drivers/fsl_i2c.o
I2C_MasterTransferAbort                           ./drivers/fsl_i2c.o
I2C_MasterTransferBlocking                        ./drivers/fsl_i2c.o
                                                  ./board/boards/board.o
I2C_MasterTransferCreateHandle                    ./drivers/fsl_i2c.o
I2C_MasterTransferGetCount                        ./drivers/fsl_i2c.o
I2C_MasterTransferHandleIRQ                       ./drivers/fsl_i2c.o
I2C_MasterTransferNonBlocking                     ./drivers/fsl_i2c.o
I2C_MasterWriteBlocking                           ./drivers/fsl_i2c.o
I2C_SlaveDeinit                                   ./drivers/fsl_i2c.o
I2C_SlaveGetDefaultConfig                         ./drivers/fsl_i2c.o
I2C_SlaveInit                                     ./drivers/fsl_i2c.o
I2C_SlaveReadBlocking                             ./drivers/fsl_i2c.o
I2C_SlaveTransferAbort                            ./drivers/fsl_i2c.o
I2C_SlaveTransferCreateHandle                     ./drivers/fsl_i2c.o
I2C_SlaveTransferGetCount                         ./drivers/fsl_i2c.o
I2C_SlaveTransferHandleIRQ                        ./drivers/fsl_i2c.o
I2C_SlaveTransferNonBlocking                      ./drivers/fsl_i2c.o
I2C_SlaveWriteBlocking                            ./drivers/fsl_i2c.o
I2S0_Rx_DriverIRQHandler                          ./startup/startup_mk66f18.o
I2S0_Rx_IRQHandler                                ./startup/startup_mk66f18.o
I2S0_Tx_DriverIRQHandler                          ./startup/startup_mk66f18.o
I2S0_Tx_IRQHandler                                ./startup/startup_mk66f18.o
IntDefaultHandler                                 ./startup/startup_mk66f18.o
LIST_AddHead                                      ./component/lists/generic_list.o
LIST_AddPrevElement                               ./component/lists/generic_list.o
LIST_AddTail                                      ./component/lists/generic_list.o
LIST_GetAvailableSize                             ./component/lists/generic_list.o
LIST_GetHead                                      ./component/lists/generic_list.o
LIST_GetList                                      ./component/lists/generic_list.o
LIST_GetNext                                      ./component/lists/generic_list.o
LIST_GetPrev                                      ./component/lists/generic_list.o
LIST_GetSize                                      ./component/lists/generic_list.o
LIST_Init                                         ./component/lists/generic_list.o
LIST_RemoveElement                                ./component/lists/generic_list.o
LIST_RemoveHead                                   ./component/lists/generic_list.o
LLWU_DriverIRQHandler                             ./startup/startup_mk66f18.o
LLWU_IRQHandler                                   ./startup/startup_mk66f18.o
LPTMR0_DriverIRQHandler                           ./startup/startup_mk66f18.o
LPTMR0_IRQHandler                                 ./startup/startup_mk66f18.o
LPUART0_DriverIRQHandler                          ./drivers/fsl_lpuart.o
                                                  ./startup/startup_mk66f18.o
LPUART0_IRQHandler                                ./startup/startup_mk66f18.o
LPUART_ClearStatusFlags                           ./drivers/fsl_lpuart.o
LPUART_Deinit                                     ./drivers/fsl_lpuart.o
LPUART_DisableInterrupts                          ./drivers/fsl_lpuart.o
LPUART_EnableInterrupts                           ./drivers/fsl_lpuart.o
LPUART_GetDefaultConfig                           ./drivers/fsl_lpuart.o
LPUART_GetEnabledInterrupts                       ./drivers/fsl_lpuart.o
LPUART_GetInstance                                ./drivers/fsl_lpuart.o
LPUART_GetStatusFlags                             ./drivers/fsl_lpuart.o
LPUART_Init                                       ./drivers/fsl_lpuart.o
LPUART_ReadBlocking                               ./drivers/fsl_lpuart.o
LPUART_SetBaudRate                                ./drivers/fsl_lpuart.o
LPUART_TransferAbortReceive                       ./drivers/fsl_lpuart.o
LPUART_TransferAbortSend                          ./drivers/fsl_lpuart.o
LPUART_TransferCreateHandle                       ./drivers/fsl_lpuart.o
LPUART_TransferGetReceiveCount                    ./drivers/fsl_lpuart.o
LPUART_TransferGetRxRingBufferLength              ./drivers/fsl_lpuart.o
LPUART_TransferGetSendCount                       ./drivers/fsl_lpuart.o
LPUART_TransferHandleErrorIRQ                     ./drivers/fsl_lpuart.o
LPUART_TransferHandleIRQ                          ./drivers/fsl_lpuart.o
LPUART_TransferReceiveNonBlocking                 ./drivers/fsl_lpuart.o
LPUART_TransferSendNonBlocking                    ./drivers/fsl_lpuart.o
LPUART_TransferStartRingBuffer                    ./drivers/fsl_lpuart.o
LPUART_TransferStopRingBuffer                     ./drivers/fsl_lpuart.o
LPUART_WriteBlocking                              ./drivers/fsl_lpuart.o
LVD_LVW_DriverIRQHandler                          ./startup/startup_mk66f18.o
LVD_LVW_IRQHandler                                ./startup/startup_mk66f18.o
MCG_DriverIRQHandler                              ./startup/startup_mk66f18.o
MCG_IRQHandler                                    ./startup/startup_mk66f18.o
MCM_DriverIRQHandler                              ./startup/startup_mk66f18.o
MCM_IRQHandler                                    ./startup/startup_mk66f18.o
MemManage_Handler                                 ./startup/startup_mk66f18.o
NMI_Handler                                       ./startup/startup_mk66f18.o
PDB0_DriverIRQHandler                             ./startup/startup_mk66f18.o
PDB0_IRQHandler                                   ./startup/startup_mk66f18.o
PIT0_DriverIRQHandler                             ./startup/startup_mk66f18.o
PIT0_IRQHandler                                   ./startup/startup_mk66f18.o
PIT1_DriverIRQHandler                             ./startup/startup_mk66f18.o
PIT1_IRQHandler                                   ./startup/startup_mk66f18.o
PIT2_DriverIRQHandler                             ./startup/startup_mk66f18.o
PIT2_IRQHandler                                   ./startup/startup_mk66f18.o
PIT3_DriverIRQHandler                             ./startup/startup_mk66f18.o
PIT3_IRQHandler                                   ./startup/startup_mk66f18.o
PORTA_DriverIRQHandler                            ./startup/startup_mk66f18.o
PORTA_IRQHandler                                  ./startup/startup_mk66f18.o
PORTB_DriverIRQHandler                            ./startup/startup_mk66f18.o
PORTB_IRQHandler                                  ./startup/startup_mk66f18.o
PORTC_DriverIRQHandler                            ./startup/startup_mk66f18.o
PORTC_IRQHandler                                  ./source/MK66FN2M0xxx18_Accelerometer2.o
                                                  ./startup/startup_mk66f18.o
PORTD_DriverIRQHandler                            ./startup/startup_mk66f18.o
PORTD_IRQHandler                                  ./startup/startup_mk66f18.o
PORTE_DriverIRQHandler                            ./startup/startup_mk66f18.o
PORTE_IRQHandler                                  ./startup/startup_mk66f18.o
PendSV_Handler                                    ./startup/startup_mk66f18.o
RNG_DriverIRQHandler                              ./startup/startup_mk66f18.o
RNG_IRQHandler                                    ./startup/startup_mk66f18.o
RTC_ClearStatusFlags                              ./drivers/fsl_rtc.o
RTC_DisableInterrupts                             ./drivers/fsl_rtc.o
RTC_DriverIRQHandler                              ./startup/startup_mk66f18.o
RTC_EnableInterrupts                              ./drivers/fsl_rtc.o
RTC_GetAlarm                                      ./drivers/fsl_rtc.o
RTC_GetDatetime                                   ./drivers/fsl_rtc.o
RTC_GetDefaultConfig                              ./drivers/fsl_rtc.o
RTC_GetEnabledInterrupts                          ./drivers/fsl_rtc.o
RTC_GetMonotonicCounter                           ./drivers/fsl_rtc.o
RTC_GetStatusFlags                                ./drivers/fsl_rtc.o
RTC_IRQHandler                                    ./startup/startup_mk66f18.o
RTC_IncrementMonotonicCounter                     ./drivers/fsl_rtc.o
RTC_Init                                          ./drivers/fsl_rtc.o
RTC_Seconds_DriverIRQHandler                      ./startup/startup_mk66f18.o
RTC_Seconds_IRQHandler                            ./startup/startup_mk66f18.o
RTC_SetAlarm                                      ./drivers/fsl_rtc.o
RTC_SetDatetime                                   ./drivers/fsl_rtc.o
RTC_SetMonotonicCounter                           ./drivers/fsl_rtc.o
Read_Collision_DriverIRQHandler                   ./startup/startup_mk66f18.o
Read_Collision_IRQHandler                         ./startup/startup_mk66f18.o
Reserved46_DriverIRQHandler                       ./startup/startup_mk66f18.o
Reserved46_IRQHandler                             ./startup/startup_mk66f18.o
Reserved71_DriverIRQHandler                       ./startup/startup_mk66f18.o
Reserved71_IRQHandler                             ./startup/startup_mk66f18.o
Reserved84_DriverIRQHandler                       ./startup/startup_mk66f18.o
Reserved84_IRQHandler                             ./startup/startup_mk66f18.o
Reserved85_DriverIRQHandler                       ./startup/startup_mk66f18.o
Reserved85_IRQHandler                             ./startup/startup_mk66f18.o
ResetISR                                          ./startup/startup_mk66f18.o
SDHC_DriverIRQHandler                             ./startup/startup_mk66f18.o
SDHC_IRQHandler                                   ./startup/startup_mk66f18.o
SDK_DelayAtLeastUs                                ./drivers/fsl_clock.o
SDK_Free                                          ./drivers/fsl_common.o
SDK_Malloc                                        ./drivers/fsl_common.o
SMC_PostExitStopModes                             ./drivers/fsl_smc.o
SMC_PostExitWaitModes                             ./drivers/fsl_smc.o
SMC_PreEnterStopModes                             ./drivers/fsl_smc.o
SMC_PreEnterWaitModes                             ./drivers/fsl_smc.o
SMC_SetPowerModeHsrun                             ./drivers/fsl_smc.o
                                                  ./board/boards/clock_config.o
SMC_SetPowerModeLls                               ./drivers/fsl_smc.o
SMC_SetPowerModeRun                               ./drivers/fsl_smc.o
SMC_SetPowerModeStop                              ./drivers/fsl_smc.o
SMC_SetPowerModeVlls                              ./drivers/fsl_smc.o
SMC_SetPowerModeVlpr                              ./drivers/fsl_smc.o
                                                  ./board/boards/clock_config.o
SMC_SetPowerModeVlps                              ./drivers/fsl_smc.o
SMC_SetPowerModeVlpw                              ./drivers/fsl_smc.o
SMC_SetPowerModeWait                              ./drivers/fsl_smc.o
SPI0_DriverIRQHandler                             ./startup/startup_mk66f18.o
SPI0_IRQHandler                                   ./startup/startup_mk66f18.o
SPI1_DriverIRQHandler                             ./startup/startup_mk66f18.o
SPI1_IRQHandler                                   ./startup/startup_mk66f18.o
SPI2_DriverIRQHandler                             ./startup/startup_mk66f18.o
SPI2_IRQHandler                                   ./startup/startup_mk66f18.o
SVC_Handler                                       ./startup/startup_mk66f18.o
SWI_DriverIRQHandler                              ./startup/startup_mk66f18.o
SWI_IRQHandler                                    ./startup/startup_mk66f18.o
SerialManager_CloseReadHandle                     ./component/serial_manager/serial_manager.o
                                                  ./utilities/fsl_debug_console.o
SerialManager_CloseWriteHandle                    ./component/serial_manager/serial_manager.o
                                                  ./utilities/fsl_debug_console.o
SerialManager_Deinit                              ./component/serial_manager/serial_manager.o
SerialManager_EnterLowpower                       ./component/serial_manager/serial_manager.o
SerialManager_ExitLowpower                        ./component/serial_manager/serial_manager.o
SerialManager_Init                                ./component/serial_manager/serial_manager.o
                                                  ./utilities/fsl_debug_console.o
SerialManager_OpenReadHandle                      ./component/serial_manager/serial_manager.o
                                                  ./utilities/fsl_debug_console.o
SerialManager_OpenWriteHandle                     ./component/serial_manager/serial_manager.o
                                                  ./utilities/fsl_debug_console.o
SerialManager_ReadBlocking                        ./component/serial_manager/serial_manager.o
                                                  ./utilities/fsl_debug_console.o
SerialManager_WriteBlocking                       ./component/serial_manager/serial_manager.o
                                                  ./utilities/fsl_debug_console.o
Serial_UartDeinit                                 ./component/serial_manager/serial_port_uart.o
                                                  ./component/serial_manager/serial_manager.o
Serial_UartInit                                   ./component/serial_manager/serial_port_uart.o
                                                  ./component/serial_manager/serial_manager.o
Serial_UartRead                                   ./component/serial_manager/serial_port_uart.o
                                                  ./component/serial_manager/serial_manager.o
Serial_UartWrite                                  ./component/serial_manager/serial_port_uart.o
                                                  ./component/serial_manager/serial_manager.o
StrFormatPrintf                                   ./utilities/fsl_str.o
StrFormatScanf                                    ./utilities/fsl_str.o
SysTick_Handler                                   ./startup/startup_mk66f18.o
SystemCoreClock                                   ./device/system_MK66F18.o
                                                  ./board/boards/clock_config.o
SystemCoreClockUpdate                             ./device/system_MK66F18.o
SystemInit                                        ./device/system_MK66F18.o
                                                  ./startup/startup_mk66f18.o
SystemInitHook                                    ./device/system_MK66F18.o
TPM1_DriverIRQHandler                             ./startup/startup_mk66f18.o
TPM1_IRQHandler                                   ./startup/startup_mk66f18.o
TPM2_DriverIRQHandler                             ./startup/startup_mk66f18.o
TPM2_IRQHandler                                   ./startup/startup_mk66f18.o
TSI0_DriverIRQHandler                             ./startup/startup_mk66f18.o
TSI0_IRQHandler                                   ./startup/startup_mk66f18.o
UART0_DriverIRQHandler                            ./drivers/fsl_uart.o
UART0_ERR_DriverIRQHandler                        ./startup/startup_mk66f18.o
UART0_ERR_IRQHandler                              ./startup/startup_mk66f18.o
UART0_RX_TX_DriverIRQHandler                      ./drivers/fsl_uart.o
                                                  ./startup/startup_mk66f18.o
UART0_RX_TX_IRQHandler                            ./startup/startup_mk66f18.o
UART1_DriverIRQHandler                            ./drivers/fsl_uart.o
UART1_ERR_DriverIRQHandler                        ./startup/startup_mk66f18.o
UART1_ERR_IRQHandler                              ./startup/startup_mk66f18.o
UART1_RX_TX_DriverIRQHandler                      ./drivers/fsl_uart.o
                                                  ./startup/startup_mk66f18.o
UART1_RX_TX_IRQHandler                            ./startup/startup_mk66f18.o
UART2_DriverIRQHandler                            ./drivers/fsl_uart.o
UART2_ERR_DriverIRQHandler                        ./startup/startup_mk66f18.o
UART2_ERR_IRQHandler                              ./startup/startup_mk66f18.o
UART2_RX_TX_DriverIRQHandler                      ./drivers/fsl_uart.o
                                                  ./startup/startup_mk66f18.o
UART2_RX_TX_IRQHandler                            ./startup/startup_mk66f18.o
UART3_DriverIRQHandler                            ./drivers/fsl_uart.o
UART3_ERR_DriverIRQHandler                        ./startup/startup_mk66f18.o
UART3_ERR_IRQHandler                              ./startup/startup_mk66f18.o
UART3_RX_TX_DriverIRQHandler                      ./drivers/fsl_uart.o
                                                  ./startup/startup_mk66f18.o
UART3_RX_TX_IRQHandler                            ./startup/startup_mk66f18.o
UART4_DriverIRQHandler                            ./drivers/fsl_uart.o
UART4_ERR_DriverIRQHandler                        ./startup/startup_mk66f18.o
UART4_ERR_IRQHandler                              ./startup/startup_mk66f18.o
UART4_RX_TX_DriverIRQHandler                      ./drivers/fsl_uart.o
                                                  ./startup/startup_mk66f18.o
UART4_RX_TX_IRQHandler                            ./startup/startup_mk66f18.o
UART_ClearStatusFlags                             ./drivers/fsl_uart.o
UART_Deinit                                       ./drivers/fsl_uart.o
                                                  ./component/uart/uart_adapter.o
UART_DisableInterrupts                            ./drivers/fsl_uart.o
UART_EnableInterrupts                             ./drivers/fsl_uart.o
UART_GetDefaultConfig                             ./drivers/fsl_uart.o
                                                  ./component/uart/uart_adapter.o
UART_GetEnabledInterrupts                         ./drivers/fsl_uart.o
UART_GetInstance                                  ./drivers/fsl_uart.o
UART_GetStatusFlags                               ./drivers/fsl_uart.o
UART_Init                                         ./drivers/fsl_uart.o
                                                  ./component/uart/uart_adapter.o
UART_ReadBlocking                                 ./drivers/fsl_uart.o
                                                  ./component/uart/uart_adapter.o
UART_SetBaudRate                                  ./drivers/fsl_uart.o
UART_TransferAbortReceive                         ./drivers/fsl_uart.o
UART_TransferAbortSend                            ./drivers/fsl_uart.o
UART_TransferCreateHandle                         ./drivers/fsl_uart.o
UART_TransferGetReceiveCount                      ./drivers/fsl_uart.o
UART_TransferGetRxRingBufferLength                ./drivers/fsl_uart.o
UART_TransferGetSendCount                         ./drivers/fsl_uart.o
UART_TransferHandleErrorIRQ                       ./drivers/fsl_uart.o
UART_TransferHandleIRQ                            ./drivers/fsl_uart.o
UART_TransferReceiveNonBlocking                   ./drivers/fsl_uart.o
UART_TransferSendNonBlocking                      ./drivers/fsl_uart.o
UART_TransferStartRingBuffer                      ./drivers/fsl_uart.o
UART_TransferStopRingBuffer                       ./drivers/fsl_uart.o
UART_WriteBlocking                                ./drivers/fsl_uart.o
                                                  ./component/uart/uart_adapter.o
USB0_DriverIRQHandler                             ./startup/startup_mk66f18.o
USB0_IRQHandler                                   ./startup/startup_mk66f18.o
USBDCD_DriverIRQHandler                           ./startup/startup_mk66f18.o
USBDCD_IRQHandler                                 ./startup/startup_mk66f18.o
USBHSDCD_DriverIRQHandler                         ./startup/startup_mk66f18.o
USBHSDCD_IRQHandler                               ./startup/startup_mk66f18.o
USBHS_DriverIRQHandler                            ./startup/startup_mk66f18.o
USBHS_IRQHandler                                  ./startup/startup_mk66f18.o
UsageFault_Handler                                ./startup/startup_mk66f18.o
WDOG_EWM_DriverIRQHandler                         ./startup/startup_mk66f18.o
WDOG_EWM_IRQHandler                               ./startup/startup_mk66f18.o
_Csys_alloc                                       c:/nxp/mcuxpressoide_11.0.0_2516/ide/plugins/com.nxp.mcuxpresso.tools.win32_11.0.0.201905131304/tools/bin/../lib/gcc/arm-none-eabi/8.2.1/../../../../arm-none-eabi/lib/thumb/v7e-m+fp/hard\libcr_c.a(alloc.o)
                                                  c:/nxp/mcuxpressoide_11.0.0_2516/ide/plugins/com.nxp.mcuxpresso.tools.win32_11.0.0.201905131304/tools/bin/../lib/gcc/arm-none-eabi/8.2.1/../../../../arm-none-eabi/lib/thumb/v7e-m+fp/hard\libcr_c.a(_deferredlazyseek.o)
_Cwritebuf                                        c:/nxp/mcuxpressoide_11.0.0_2516/ide/plugins/com.nxp.mcuxpresso.tools.win32_11.0.0.201905131304/tools/bin/../lib/gcc/arm-none-eabi/8.2.1/../../../../arm-none-eabi/lib/thumb/v7e-m+fp/hard\libcr_c.a(_writebuf.o)
                                                  c:/nxp/mcuxpressoide_11.0.0_2516/ide/plugins/com.nxp.mcuxpresso.tools.win32_11.0.0.201905131304/tools/bin/../lib/gcc/arm-none-eabi/8.2.1/../../../../arm-none-eabi/lib/thumb/v7e-m+fp/hard\libcr_c.a(_fflush.o)
                                                  c:/nxp/mcuxpressoide_11.0.0_2516/ide/plugins/com.nxp.mcuxpresso.tools.win32_11.0.0.201905131304/tools/bin/../lib/gcc/arm-none-eabi/8.2.1/../../../../arm-none-eabi/lib/thumb/v7e-m+fp/hard\libcr_c.a(_deferredlazyseek.o)
__CR_SEMIHOST                                     c:/nxp/mcuxpressoide_11.0.0_2516/ide/plugins/com.nxp.mcuxpresso.tools.win32_11.0.0.201905131304/tools/bin/../lib/gcc/arm-none-eabi/8.2.1/../../../../arm-none-eabi/lib/thumb/v7e-m+fp/hard\libcr_semihost_nf.a(_cr__main.o)
__Ciob                                            c:/nxp/mcuxpressoide_11.0.0_2516/ide/plugins/com.nxp.mcuxpresso.tools.win32_11.0.0.201905131304/tools/bin/../lib/gcc/arm-none-eabi/8.2.1/../../../../arm-none-eabi/lib/thumb/v7e-m+fp/hard\libcr_semihost_nf.a(__ciob.o)
                                                  c:/nxp/mcuxpressoide_11.0.0_2516/ide/plugins/com.nxp.mcuxpresso.tools.win32_11.0.0.201905131304/tools/bin/../lib/gcc/arm-none-eabi/8.2.1/../../../../arm-none-eabi/lib/thumb/v7e-m+fp/hard\libcr_c.a(fflush.o)
                                                  c:/nxp/mcuxpressoide_11.0.0_2516/ide/plugins/com.nxp.mcuxpresso.tools.win32_11.0.0.201905131304/tools/bin/../lib/gcc/arm-none-eabi/8.2.1/../../../../arm-none-eabi/lib/thumb/v7e-m+fp/hard\libcr_c.a(printf.o)
                                                  c:/nxp/mcuxpressoide_11.0.0_2516/ide/plugins/com.nxp.mcuxpresso.tools.win32_11.0.0.201905131304/tools/bin/../lib/gcc/arm-none-eabi/8.2.1/../../../../arm-none-eabi/lib/thumb/v7e-m+fp/hard\libcr_c.a(initio.o)
                                                  c:/nxp/mcuxpressoide_11.0.0_2516/ide/plugins/com.nxp.mcuxpresso.tools.win32_11.0.0.201905131304/tools/bin/../lib/gcc/arm-none-eabi/8.2.1/../../../../arm-none-eabi/lib/thumb/v7e-m+fp/hard\libcr_semihost_nf.a(_cr_assert.o)
__Vectors                                         ./startup/startup_mk66f18.o
__aeabi_cdcmpeq                                   c:/nxp/mcuxpressoide_11.0.0_2516/ide/plugins/com.nxp.mcuxpresso.tools.win32_11.0.0.201905131304/tools/bin/../lib/gcc/arm-none-eabi/8.2.1/thumb/v7e-m+fp/hard\libcr_eabihelpers.a(double.o)
__aeabi_cdcmple                                   c:/nxp/mcuxpressoide_11.0.0_2516/ide/plugins/com.nxp.mcuxpresso.tools.win32_11.0.0.201905131304/tools/bin/../lib/gcc/arm-none-eabi/8.2.1/thumb/v7e-m+fp/hard\libcr_eabihelpers.a(double.o)
__aeabi_cdrcmple                                  c:/nxp/mcuxpressoide_11.0.0_2516/ide/plugins/com.nxp.mcuxpresso.tools.win32_11.0.0.201905131304/tools/bin/../lib/gcc/arm-none-eabi/8.2.1/thumb/v7e-m+fp/hard\libcr_eabihelpers.a(double.o)
__aeabi_d2f                                       c:/nxp/mcuxpressoide_11.0.0_2516/ide/plugins/com.nxp.mcuxpresso.tools.win32_11.0.0.201905131304/tools/bin/../lib/gcc/arm-none-eabi/8.2.1/thumb/v7e-m+fp/hard\libcr_eabihelpers.a(double.o)
__aeabi_d2iz                                      c:/nxp/mcuxpressoide_11.0.0_2516/ide/plugins/com.nxp.mcuxpresso.tools.win32_11.0.0.201905131304/tools/bin/../lib/gcc/arm-none-eabi/8.2.1/thumb/v7e-m+fp/hard\libcr_eabihelpers.a(double.o)
                                                  ./source/MK66FN2M0xxx18_Accelerometer2.o
__aeabi_d2lz                                      c:/nxp/mcuxpressoide_11.0.0_2516/ide/plugins/com.nxp.mcuxpresso.tools.win32_11.0.0.201905131304/tools/bin/../lib/gcc/arm-none-eabi/8.2.1/thumb/v7e-m+fp/hard\libcr_eabihelpers.a(double.o)
__aeabi_d2uiz                                     c:/nxp/mcuxpressoide_11.0.0_2516/ide/plugins/com.nxp.mcuxpresso.tools.win32_11.0.0.201905131304/tools/bin/../lib/gcc/arm-none-eabi/8.2.1/thumb/v7e-m+fp/hard\libcr_eabihelpers.a(double.o)
__aeabi_d2ulz                                     c:/nxp/mcuxpressoide_11.0.0_2516/ide/plugins/com.nxp.mcuxpresso.tools.win32_11.0.0.201905131304/tools/bin/../lib/gcc/arm-none-eabi/8.2.1/thumb/v7e-m+fp/hard\libcr_eabihelpers.a(double.o)
__aeabi_dadd                                      c:/nxp/mcuxpressoide_11.0.0_2516/ide/plugins/com.nxp.mcuxpresso.tools.win32_11.0.0.201905131304/tools/bin/../lib/gcc/arm-none-eabi/8.2.1/thumb/v7e-m+fp/hard\libcr_eabihelpers.a(double.o)
__aeabi_dcmpeq                                    c:/nxp/mcuxpressoide_11.0.0_2516/ide/plugins/com.nxp.mcuxpresso.tools.win32_11.0.0.201905131304/tools/bin/../lib/gcc/arm-none-eabi/8.2.1/thumb/v7e-m+fp/hard\libcr_eabihelpers.a(double.o)
                                                  c:/nxp/mcuxpressoide_11.0.0_2516/ide/plugins/com.nxp.mcuxpresso.tools.win32_11.0.0.201905131304/tools/bin/../lib/gcc/arm-none-eabi/8.2.1/../../../../arm-none-eabi/lib/thumb/v7e-m+fp/hard\libcr_c.a(floor.o)
__aeabi_dcmpge                                    c:/nxp/mcuxpressoide_11.0.0_2516/ide/plugins/com.nxp.mcuxpresso.tools.win32_11.0.0.201905131304/tools/bin/../lib/gcc/arm-none-eabi/8.2.1/thumb/v7e-m+fp/hard\libcr_eabihelpers.a(double.o)
__aeabi_dcmpgt                                    c:/nxp/mcuxpressoide_11.0.0_2516/ide/plugins/com.nxp.mcuxpresso.tools.win32_11.0.0.201905131304/tools/bin/../lib/gcc/arm-none-eabi/8.2.1/thumb/v7e-m+fp/hard\libcr_eabihelpers.a(double.o)
__aeabi_dcmple                                    c:/nxp/mcuxpressoide_11.0.0_2516/ide/plugins/com.nxp.mcuxpresso.tools.win32_11.0.0.201905131304/tools/bin/../lib/gcc/arm-none-eabi/8.2.1/thumb/v7e-m+fp/hard\libcr_eabihelpers.a(double.o)
__aeabi_dcmplt                                    c:/nxp/mcuxpressoide_11.0.0_2516/ide/plugins/com.nxp.mcuxpresso.tools.win32_11.0.0.201905131304/tools/bin/../lib/gcc/arm-none-eabi/8.2.1/thumb/v7e-m+fp/hard\libcr_eabihelpers.a(double.o)
__aeabi_dcmpun                                    c:/nxp/mcuxpressoide_11.0.0_2516/ide/plugins/com.nxp.mcuxpresso.tools.win32_11.0.0.201905131304/tools/bin/../lib/gcc/arm-none-eabi/8.2.1/thumb/v7e-m+fp/hard\libcr_eabihelpers.a(double.o)
__aeabi_ddiv                                      c:/nxp/mcuxpressoide_11.0.0_2516/ide/plugins/com.nxp.mcuxpresso.tools.win32_11.0.0.201905131304/tools/bin/../lib/gcc/arm-none-eabi/8.2.1/thumb/v7e-m+fp/hard\libcr_eabihelpers.a(double.o)
                                                  ./source/MK66FN2M0xxx18_Accelerometer2.o
__aeabi_dmul                                      c:/nxp/mcuxpressoide_11.0.0_2516/ide/plugins/com.nxp.mcuxpresso.tools.win32_11.0.0.201905131304/tools/bin/../lib/gcc/arm-none-eabi/8.2.1/thumb/v7e-m+fp/hard\libcr_eabihelpers.a(double.o)
                                                  ./source/MK66FN2M0xxx18_Accelerometer2.o
__aeabi_dneg                                      c:/nxp/mcuxpressoide_11.0.0_2516/ide/plugins/com.nxp.mcuxpresso.tools.win32_11.0.0.201905131304/tools/bin/../lib/gcc/arm-none-eabi/8.2.1/thumb/v7e-m+fp/hard\libcr_eabihelpers.a(double.o)
__aeabi_drsub                                     c:/nxp/mcuxpressoide_11.0.0_2516/ide/plugins/com.nxp.mcuxpresso.tools.win32_11.0.0.201905131304/tools/bin/../lib/gcc/arm-none-eabi/8.2.1/thumb/v7e-m+fp/hard\libcr_eabihelpers.a(double.o)
__aeabi_dsub                                      c:/nxp/mcuxpressoide_11.0.0_2516/ide/plugins/com.nxp.mcuxpresso.tools.win32_11.0.0.201905131304/tools/bin/../lib/gcc/arm-none-eabi/8.2.1/thumb/v7e-m+fp/hard\libcr_eabihelpers.a(double.o)
                                                  c:/nxp/mcuxpressoide_11.0.0_2516/ide/plugins/com.nxp.mcuxpresso.tools.win32_11.0.0.201905131304/tools/bin/../lib/gcc/arm-none-eabi/8.2.1/../../../../arm-none-eabi/lib/thumb/v7e-m+fp/hard\libcr_c.a(floor.o)
__aeabi_i2d                                       c:/nxp/mcuxpressoide_11.0.0_2516/ide/plugins/com.nxp.mcuxpresso.tools.win32_11.0.0.201905131304/tools/bin/../lib/gcc/arm-none-eabi/8.2.1/thumb/v7e-m+fp/hard\libcr_eabihelpers.a(double.o)
                                                  ./source/MK66FN2M0xxx18_Accelerometer2.o
__aeabi_l2d                                       c:/nxp/mcuxpressoide_11.0.0_2516/ide/plugins/com.nxp.mcuxpresso.tools.win32_11.0.0.201905131304/tools/bin/../lib/gcc/arm-none-eabi/8.2.1/thumb/v7e-m+fp/hard\libcr_eabihelpers.a(double.o)
__aeabi_lowlevel_memset                           c:/nxp/mcuxpressoide_11.0.0_2516/ide/plugins/com.nxp.mcuxpresso.tools.win32_11.0.0.201905131304/tools/bin/../lib/gcc/arm-none-eabi/8.2.1/thumb/v7e-m+fp/hard\libcr_eabihelpers.a(memcpy.o)
                                                  c:/nxp/mcuxpressoide_11.0.0_2516/ide/plugins/com.nxp.mcuxpresso.tools.win32_11.0.0.201905131304/tools/bin/../lib/gcc/arm-none-eabi/8.2.1/../../../../arm-none-eabi/lib/thumb/v7e-m+fp/hard\libcr_c.a(memset.o)
__aeabi_memclr                                    c:/nxp/mcuxpressoide_11.0.0_2516/ide/plugins/com.nxp.mcuxpresso.tools.win32_11.0.0.201905131304/tools/bin/../lib/gcc/arm-none-eabi/8.2.1/thumb/v7e-m+fp/hard\libcr_eabihelpers.a(memcpy.o)
__aeabi_memclr4                                   c:/nxp/mcuxpressoide_11.0.0_2516/ide/plugins/com.nxp.mcuxpresso.tools.win32_11.0.0.201905131304/tools/bin/../lib/gcc/arm-none-eabi/8.2.1/thumb/v7e-m+fp/hard\libcr_eabihelpers.a(memcpy.o)
__aeabi_memclr8                                   c:/nxp/mcuxpressoide_11.0.0_2516/ide/plugins/com.nxp.mcuxpresso.tools.win32_11.0.0.201905131304/tools/bin/../lib/gcc/arm-none-eabi/8.2.1/thumb/v7e-m+fp/hard\libcr_eabihelpers.a(memcpy.o)
__aeabi_memcpy                                    c:/nxp/mcuxpressoide_11.0.0_2516/ide/plugins/com.nxp.mcuxpresso.tools.win32_11.0.0.201905131304/tools/bin/../lib/gcc/arm-none-eabi/8.2.1/thumb/v7e-m+fp/hard\libcr_eabihelpers.a(memcpy.o)
                                                  c:/nxp/mcuxpressoide_11.0.0_2516/ide/plugins/com.nxp.mcuxpresso.tools.win32_11.0.0.201905131304/tools/bin/../lib/gcc/arm-none-eabi/8.2.1/../../../../arm-none-eabi/lib/thumb/v7e-m+fp/hard\libcr_c.a(memcpy.o)
__aeabi_memcpy4                                   c:/nxp/mcuxpressoide_11.0.0_2516/ide/plugins/com.nxp.mcuxpresso.tools.win32_11.0.0.201905131304/tools/bin/../lib/gcc/arm-none-eabi/8.2.1/thumb/v7e-m+fp/hard\libcr_eabihelpers.a(memcpy.o)
__aeabi_memcpy8                                   c:/nxp/mcuxpressoide_11.0.0_2516/ide/plugins/com.nxp.mcuxpresso.tools.win32_11.0.0.201905131304/tools/bin/../lib/gcc/arm-none-eabi/8.2.1/thumb/v7e-m+fp/hard\libcr_eabihelpers.a(memcpy.o)
__aeabi_memmove                                   c:/nxp/mcuxpressoide_11.0.0_2516/ide/plugins/com.nxp.mcuxpresso.tools.win32_11.0.0.201905131304/tools/bin/../lib/gcc/arm-none-eabi/8.2.1/thumb/v7e-m+fp/hard\libcr_eabihelpers.a(memcpy.o)
__aeabi_memmove4                                  c:/nxp/mcuxpressoide_11.0.0_2516/ide/plugins/com.nxp.mcuxpresso.tools.win32_11.0.0.201905131304/tools/bin/../lib/gcc/arm-none-eabi/8.2.1/thumb/v7e-m+fp/hard\libcr_eabihelpers.a(memcpy.o)
__aeabi_memmove8                                  c:/nxp/mcuxpressoide_11.0.0_2516/ide/plugins/com.nxp.mcuxpresso.tools.win32_11.0.0.201905131304/tools/bin/../lib/gcc/arm-none-eabi/8.2.1/thumb/v7e-m+fp/hard\libcr_eabihelpers.a(memcpy.o)
__aeabi_memset                                    c:/nxp/mcuxpressoide_11.0.0_2516/ide/plugins/com.nxp.mcuxpresso.tools.win32_11.0.0.201905131304/tools/bin/../lib/gcc/arm-none-eabi/8.2.1/thumb/v7e-m+fp/hard\libcr_eabihelpers.a(memcpy.o)
__aeabi_memset4                                   c:/nxp/mcuxpressoide_11.0.0_2516/ide/plugins/com.nxp.mcuxpresso.tools.win32_11.0.0.201905131304/tools/bin/../lib/gcc/arm-none-eabi/8.2.1/thumb/v7e-m+fp/hard\libcr_eabihelpers.a(memcpy.o)
__aeabi_memset8                                   c:/nxp/mcuxpressoide_11.0.0_2516/ide/plugins/com.nxp.mcuxpresso.tools.win32_11.0.0.201905131304/tools/bin/../lib/gcc/arm-none-eabi/8.2.1/thumb/v7e-m+fp/hard\libcr_eabihelpers.a(memcpy.o)
__aeabi_ui2d                                      c:/nxp/mcuxpressoide_11.0.0_2516/ide/plugins/com.nxp.mcuxpresso.tools.win32_11.0.0.201905131304/tools/bin/../lib/gcc/arm-none-eabi/8.2.1/thumb/v7e-m+fp/hard\libcr_eabihelpers.a(double.o)
__aeabi_ul2d                                      c:/nxp/mcuxpressoide_11.0.0_2516/ide/plugins/com.nxp.mcuxpresso.tools.win32_11.0.0.201905131304/tools/bin/../lib/gcc/arm-none-eabi/8.2.1/thumb/v7e-m+fp/hard\libcr_eabihelpers.a(double.o)
__assertion_failed                                c:/nxp/mcuxpressoide_11.0.0_2516/ide/plugins/com.nxp.mcuxpresso.tools.win32_11.0.0.201905131304/tools/bin/../lib/gcc/arm-none-eabi/8.2.1/../../../../arm-none-eabi/lib/thumb/v7e-m+fp/hard\libcr_semihost_nf.a(_cr_assert.o)
                                                  ./accel/fsl_fxos.o
                                                  ./board/boards/pin_mux.o
                                                  ./component/serial_manager/serial_port_uart.o
                                                  ./component/serial_manager/serial_manager.o
                                                  ./component/uart/uart_adapter.o
                                                  ./drivers/fsl_uart.o
                                                  ./drivers/fsl_rtc.o
                                                  ./drivers/fsl_lpuart.o
                                                  ./drivers/fsl_i2c.o
                                                  ./drivers/fsl_gpio.o
                                                  ./drivers/fsl_clock.o
                                                  ./source/accel.o
                                                  ./utilities/fsl_debug_console.o
__bhs_ui2d                                        c:/nxp/mcuxpressoide_11.0.0_2516/ide/plugins/com.nxp.mcuxpresso.tools.win32_11.0.0.201905131304/tools/bin/../lib/gcc/arm-none-eabi/8.2.1/thumb/v7e-m+fp/hard\libcr_eabihelpers.a(double.o)
__bhs_ul2d                                        c:/nxp/mcuxpressoide_11.0.0_2516/ide/plugins/com.nxp.mcuxpresso.tools.win32_11.0.0.201905131304/tools/bin/../lib/gcc/arm-none-eabi/8.2.1/thumb/v7e-m+fp/hard\libcr_eabihelpers.a(double.o)
__bss_section_table_end                           ./startup/startup_mk66f18.o
__check_heap_overflow                             c:/nxp/mcuxpressoide_11.0.0_2516/ide/plugins/com.nxp.mcuxpresso.tools.win32_11.0.0.201905131304/tools/bin/../lib/gcc/arm-none-eabi/8.2.1/../../../../arm-none-eabi/lib/thumb/v7e-m+fp/hard\libcr_c.a(_cr_check_heap.o)
                                                  c:/nxp/mcuxpressoide_11.0.0_2516/ide/plugins/com.nxp.mcuxpresso.tools.win32_11.0.0.201905131304/tools/bin/../lib/gcc/arm-none-eabi/8.2.1/../../../../arm-none-eabi/lib/thumb/v7e-m+fp/hard\libcr_c.a(_cr_sbrk.o)
__data_section_table                              ./startup/startup_mk66f18.o
__data_section_table_end                          ./startup/startup_mk66f18.o
__end_of_heap                                     c:/nxp/mcuxpressoide_11.0.0_2516/ide/plugins/com.nxp.mcuxpresso.tools.win32_11.0.0.201905131304/tools/bin/../lib/gcc/arm-none-eabi/8.2.1/../../../../arm-none-eabi/lib/thumb/v7e-m+fp/hard\libcr_c.a(__init_alloc.o)
                                                  c:/nxp/mcuxpressoide_11.0.0_2516/ide/plugins/com.nxp.mcuxpresso.tools.win32_11.0.0.201905131304/tools/bin/../lib/gcc/arm-none-eabi/8.2.1/../../../../arm-none-eabi/lib/thumb/v7e-m+fp/hard\libcr_c.a(_cr_sbrk.o)
__exit                                            c:/nxp/mcuxpressoide_11.0.0_2516/ide/plugins/com.nxp.mcuxpresso.tools.win32_11.0.0.201905131304/tools/bin/../lib/gcc/arm-none-eabi/8.2.1/../../../../arm-none-eabi/lib/thumb/v7e-m+fp/hard\libcr_semihost_nf.a(__sys_appexit.o)
__flsbuf                                          c:/nxp/mcuxpressoide_11.0.0_2516/ide/plugins/com.nxp.mcuxpresso.tools.win32_11.0.0.201905131304/tools/bin/../lib/gcc/arm-none-eabi/8.2.1/../../../../arm-none-eabi/lib/thumb/v7e-m+fp/hard\libcr_c.a(_deferredlazyseek.o)
                                                  c:/nxp/mcuxpressoide_11.0.0_2516/ide/plugins/com.nxp.mcuxpresso.tools.win32_11.0.0.201905131304/tools/bin/../lib/gcc/arm-none-eabi/8.2.1/../../../../arm-none-eabi/lib/thumb/v7e-m+fp/hard\libcr_c.a(printf.o)
                                                  c:/nxp/mcuxpressoide_11.0.0_2516/ide/plugins/com.nxp.mcuxpresso.tools.win32_11.0.0.201905131304/tools/bin/../lib/gcc/arm-none-eabi/8.2.1/../../../../arm-none-eabi/lib/thumb/v7e-m+fp/hard\libcr_c.a(fputs.o)
                                                  c:/nxp/mcuxpressoide_11.0.0_2516/ide/plugins/com.nxp.mcuxpresso.tools.win32_11.0.0.201905131304/tools/bin/../lib/gcc/arm-none-eabi/8.2.1/../../../../arm-none-eabi/lib/thumb/v7e-m+fp/hard\libcr_semihost_nf.a(_cr_assert.o)
__heaps                                           c:/nxp/mcuxpressoide_11.0.0_2516/ide/plugins/com.nxp.mcuxpresso.tools.win32_11.0.0.201905131304/tools/bin/../lib/gcc/arm-none-eabi/8.2.1/../../../../arm-none-eabi/lib/thumb/v7e-m+fp/hard\libcr_c.a(__init_alloc.o)
                                                  c:/nxp/mcuxpressoide_11.0.0_2516/ide/plugins/com.nxp.mcuxpresso.tools.win32_11.0.0.201905131304/tools/bin/../lib/gcc/arm-none-eabi/8.2.1/../../../../arm-none-eabi/lib/thumb/v7e-m+fp/hard\libcr_c.a(alloc.o)
__main                                            c:/nxp/mcuxpressoide_11.0.0_2516/ide/plugins/com.nxp.mcuxpresso.tools.win32_11.0.0.201905131304/tools/bin/../lib/gcc/arm-none-eabi/8.2.1/../../../../arm-none-eabi/lib/thumb/v7e-m+fp/hard\libcr_semihost_nf.a(_cr__main.o)
                                                  ./startup/startup_mk66f18.o
__num_Ciob_streams                                c:/nxp/mcuxpressoide_11.0.0_2516/ide/plugins/com.nxp.mcuxpresso.tools.win32_11.0.0.201905131304/tools/bin/../lib/gcc/arm-none-eabi/8.2.1/../../../../arm-none-eabi/lib/thumb/v7e-m+fp/hard\libcr_semihost_nf.a(__ciob.o)
                                                  c:/nxp/mcuxpressoide_11.0.0_2516/ide/plugins/com.nxp.mcuxpresso.tools.win32_11.0.0.201905131304/tools/bin/../lib/gcc/arm-none-eabi/8.2.1/../../../../arm-none-eabi/lib/thumb/v7e-m+fp/hard\libcr_c.a(fflush.o)
                                                  c:/nxp/mcuxpressoide_11.0.0_2516/ide/plugins/com.nxp.mcuxpresso.tools.win32_11.0.0.201905131304/tools/bin/../lib/gcc/arm-none-eabi/8.2.1/../../../../arm-none-eabi/lib/thumb/v7e-m+fp/hard\libcr_c.a(initio.o)
__sys_appexit                                     c:/nxp/mcuxpressoide_11.0.0_2516/ide/plugins/com.nxp.mcuxpresso.tools.win32_11.0.0.201905131304/tools/bin/../lib/gcc/arm-none-eabi/8.2.1/../../../../arm-none-eabi/lib/thumb/v7e-m+fp/hard\libcr_semihost_nf.a(__sys_appexit.o)
                                                  c:/nxp/mcuxpressoide_11.0.0_2516/ide/plugins/com.nxp.mcuxpresso.tools.win32_11.0.0.201905131304/tools/bin/../lib/gcc/arm-none-eabi/8.2.1/../../../../arm-none-eabi/lib/thumb/v7e-m+fp/hard\libcr_c.a(alloc.o)
                                                  c:/nxp/mcuxpressoide_11.0.0_2516/ide/plugins/com.nxp.mcuxpresso.tools.win32_11.0.0.201905131304/tools/bin/../lib/gcc/arm-none-eabi/8.2.1/../../../../arm-none-eabi/lib/thumb/v7e-m+fp/hard\libcr_semihost_nf.a(_cr_assert.o)
__sys_close                                       c:/nxp/mcuxpressoide_11.0.0_2516/ide/plugins/com.nxp.mcuxpresso.tools.win32_11.0.0.201905131304/tools/bin/../lib/gcc/arm-none-eabi/8.2.1/../../../../arm-none-eabi/lib/thumb/v7e-m+fp/hard\libcr_semihost_nf.a(__sys_close.o)
                                                  c:/nxp/mcuxpressoide_11.0.0_2516/ide/plugins/com.nxp.mcuxpresso.tools.win32_11.0.0.201905131304/tools/bin/../lib/gcc/arm-none-eabi/8.2.1/../../../../arm-none-eabi/lib/thumb/v7e-m+fp/hard\libcr_c.a(fclose.o)
__sys_flen                                        c:/nxp/mcuxpressoide_11.0.0_2516/ide/plugins/com.nxp.mcuxpresso.tools.win32_11.0.0.201905131304/tools/bin/../lib/gcc/arm-none-eabi/8.2.1/../../../../arm-none-eabi/lib/thumb/v7e-m+fp/hard\libcr_semihost_nf.a(__sys_flen.o)
                                                  c:/nxp/mcuxpressoide_11.0.0_2516/ide/plugins/com.nxp.mcuxpresso.tools.win32_11.0.0.201905131304/tools/bin/../lib/gcc/arm-none-eabi/8.2.1/../../../../arm-none-eabi/lib/thumb/v7e-m+fp/hard\libcr_c.a(fseek.o)
                                                  c:/nxp/mcuxpressoide_11.0.0_2516/ide/plugins/com.nxp.mcuxpresso.tools.win32_11.0.0.201905131304/tools/bin/../lib/gcc/arm-none-eabi/8.2.1/../../../../arm-none-eabi/lib/thumb/v7e-m+fp/hard\libcr_c.a(_writebuf.o)
__sys_istty                                       c:/nxp/mcuxpressoide_11.0.0_2516/ide/plugins/com.nxp.mcuxpresso.tools.win32_11.0.0.201905131304/tools/bin/../lib/gcc/arm-none-eabi/8.2.1/../../../../arm-none-eabi/lib/thumb/v7e-m+fp/hard\libcr_semihost_nf.a(__sys_istty.o)
                                                  c:/nxp/mcuxpressoide_11.0.0_2516/ide/plugins/com.nxp.mcuxpresso.tools.win32_11.0.0.201905131304/tools/bin/../lib/gcc/arm-none-eabi/8.2.1/../../../../arm-none-eabi/lib/thumb/v7e-m+fp/hard\libcr_c.a(fseek.o)
                                                  c:/nxp/mcuxpressoide_11.0.0_2516/ide/plugins/com.nxp.mcuxpresso.tools.win32_11.0.0.201905131304/tools/bin/../lib/gcc/arm-none-eabi/8.2.1/../../../../arm-none-eabi/lib/thumb/v7e-m+fp/hard\libcr_c.a(_deferredlazyseek.o)
__sys_remove                                      c:/nxp/mcuxpressoide_11.0.0_2516/ide/plugins/com.nxp.mcuxpresso.tools.win32_11.0.0.201905131304/tools/bin/../lib/gcc/arm-none-eabi/8.2.1/../../../../arm-none-eabi/lib/thumb/v7e-m+fp/hard\libcr_semihost_nf.a(__sys_remove.o)
                                                  c:/nxp/mcuxpressoide_11.0.0_2516/ide/plugins/com.nxp.mcuxpresso.tools.win32_11.0.0.201905131304/tools/bin/../lib/gcc/arm-none-eabi/8.2.1/../../../../arm-none-eabi/lib/thumb/v7e-m+fp/hard\libcr_c.a(remove.o)
__sys_rename                                      c:/nxp/mcuxpressoide_11.0.0_2516/ide/plugins/com.nxp.mcuxpresso.tools.win32_11.0.0.201905131304/tools/bin/../lib/gcc/arm-none-eabi/8.2.1/../../../../arm-none-eabi/lib/thumb/v7e-m+fp/hard\libcr_semihost_nf.a(__sys_rename.o)
                                                  c:/nxp/mcuxpressoide_11.0.0_2516/ide/plugins/com.nxp.mcuxpresso.tools.win32_11.0.0.201905131304/tools/bin/../lib/gcc/arm-none-eabi/8.2.1/../../../../arm-none-eabi/lib/thumb/v7e-m+fp/hard\libcr_c.a(remove.o)
__sys_seek                                        c:/nxp/mcuxpressoide_11.0.0_2516/ide/plugins/com.nxp.mcuxpresso.tools.win32_11.0.0.201905131304/tools/bin/../lib/gcc/arm-none-eabi/8.2.1/../../../../arm-none-eabi/lib/thumb/v7e-m+fp/hard\libcr_semihost_nf.a(__sys_seek.o)
                                                  c:/nxp/mcuxpressoide_11.0.0_2516/ide/plugins/com.nxp.mcuxpresso.tools.win32_11.0.0.201905131304/tools/bin/../lib/gcc/arm-none-eabi/8.2.1/../../../../arm-none-eabi/lib/thumb/v7e-m+fp/hard\libcr_c.a(_writebuf.o)
__sys_tmpnam                                      c:/nxp/mcuxpressoide_11.0.0_2516/ide/plugins/com.nxp.mcuxpresso.tools.win32_11.0.0.201905131304/tools/bin/../lib/gcc/arm-none-eabi/8.2.1/../../../../arm-none-eabi/lib/thumb/v7e-m+fp/hard\libcr_semihost_nf.a(__sys_tmpnam.o)
                                                  c:/nxp/mcuxpressoide_11.0.0_2516/ide/plugins/com.nxp.mcuxpresso.tools.win32_11.0.0.201905131304/tools/bin/../lib/gcc/arm-none-eabi/8.2.1/../../../../arm-none-eabi/lib/thumb/v7e-m+fp/hard\libcr_c.a(fclose.o)
__sys_write                                       c:/nxp/mcuxpressoide_11.0.0_2516/ide/plugins/com.nxp.mcuxpresso.tools.win32_11.0.0.201905131304/tools/bin/../lib/gcc/arm-none-eabi/8.2.1/../../../../arm-none-eabi/lib/thumb/v7e-m+fp/hard\libcr_semihost_nf.a(__sys_write.o)
                                                  c:/nxp/mcuxpressoide_11.0.0_2516/ide/plugins/com.nxp.mcuxpresso.tools.win32_11.0.0.201905131304/tools/bin/../lib/gcc/arm-none-eabi/8.2.1/../../../../arm-none-eabi/lib/thumb/v7e-m+fp/hard\libcr_c.a(printf.o)
                                                  c:/nxp/mcuxpressoide_11.0.0_2516/ide/plugins/com.nxp.mcuxpresso.tools.win32_11.0.0.201905131304/tools/bin/../lib/gcc/arm-none-eabi/8.2.1/../../../../arm-none-eabi/lib/thumb/v7e-m+fp/hard\libcr_c.a(alloc.o)
                                                  c:/nxp/mcuxpressoide_11.0.0_2516/ide/plugins/com.nxp.mcuxpresso.tools.win32_11.0.0.201905131304/tools/bin/../lib/gcc/arm-none-eabi/8.2.1/../../../../arm-none-eabi/lib/thumb/v7e-m+fp/hard\libcr_c.a(_writebuf.o)
__vfprintf                                        c:/nxp/mcuxpressoide_11.0.0_2516/ide/plugins/com.nxp.mcuxpresso.tools.win32_11.0.0.201905131304/tools/bin/../lib/gcc/arm-none-eabi/8.2.1/../../../../arm-none-eabi/lib/thumb/v7e-m+fp/hard\libcr_c.a(printf.o)
_deferredlazyseek                                 c:/nxp/mcuxpressoide_11.0.0_2516/ide/plugins/com.nxp.mcuxpresso.tools.win32_11.0.0.201905131304/tools/bin/../lib/gcc/arm-none-eabi/8.2.1/../../../../arm-none-eabi/lib/thumb/v7e-m+fp/hard\libcr_c.a(_deferredlazyseek.o)
                                                  c:/nxp/mcuxpressoide_11.0.0_2516/ide/plugins/com.nxp.mcuxpresso.tools.win32_11.0.0.201905131304/tools/bin/../lib/gcc/arm-none-eabi/8.2.1/../../../../arm-none-eabi/lib/thumb/v7e-m+fp/hard\libcr_c.a(_do_fflush.o)
_do_fflush                                        c:/nxp/mcuxpressoide_11.0.0_2516/ide/plugins/com.nxp.mcuxpresso.tools.win32_11.0.0.201905131304/tools/bin/../lib/gcc/arm-none-eabi/8.2.1/../../../../arm-none-eabi/lib/thumb/v7e-m+fp/hard\libcr_c.a(_do_fflush.o)
                                                  c:/nxp/mcuxpressoide_11.0.0_2516/ide/plugins/com.nxp.mcuxpresso.tools.win32_11.0.0.201905131304/tools/bin/../lib/gcc/arm-none-eabi/8.2.1/../../../../arm-none-eabi/lib/thumb/v7e-m+fp/hard\libcr_c.a(fflush.o)
_fdopen                                           c:/nxp/mcuxpressoide_11.0.0_2516/ide/plugins/com.nxp.mcuxpresso.tools.win32_11.0.0.201905131304/tools/bin/../lib/gcc/arm-none-eabi/8.2.1/../../../../arm-none-eabi/lib/thumb/v7e-m+fp/hard\libcr_c.a(_fdopen.o)
                                                  c:/nxp/mcuxpressoide_11.0.0_2516/ide/plugins/com.nxp.mcuxpresso.tools.win32_11.0.0.201905131304/tools/bin/../lib/gcc/arm-none-eabi/8.2.1/../../../../arm-none-eabi/lib/thumb/v7e-m+fp/hard\libcr_c.a(initio.o)
_fflush                                           c:/nxp/mcuxpressoide_11.0.0_2516/ide/plugins/com.nxp.mcuxpresso.tools.win32_11.0.0.201905131304/tools/bin/../lib/gcc/arm-none-eabi/8.2.1/../../../../arm-none-eabi/lib/thumb/v7e-m+fp/hard\libcr_c.a(_fflush.o)
                                                  c:/nxp/mcuxpressoide_11.0.0_2516/ide/plugins/com.nxp.mcuxpresso.tools.win32_11.0.0.201905131304/tools/bin/../lib/gcc/arm-none-eabi/8.2.1/../../../../arm-none-eabi/lib/thumb/v7e-m+fp/hard\libcr_c.a(_do_fflush.o)
                                                  c:/nxp/mcuxpressoide_11.0.0_2516/ide/plugins/com.nxp.mcuxpresso.tools.win32_11.0.0.201905131304/tools/bin/../lib/gcc/arm-none-eabi/8.2.1/../../../../arm-none-eabi/lib/thumb/v7e-m+fp/hard\libcr_c.a(_deferredlazyseek.o)
_fprintf                                          c:/nxp/mcuxpressoide_11.0.0_2516/ide/plugins/com.nxp.mcuxpresso.tools.win32_11.0.0.201905131304/tools/bin/../lib/gcc/arm-none-eabi/8.2.1/../../../../arm-none-eabi/lib/thumb/v7e-m+fp/hard\libcr_c.a(printf.o)
_init_alloc                                       c:/nxp/mcuxpressoide_11.0.0_2516/ide/plugins/com.nxp.mcuxpresso.tools.win32_11.0.0.201905131304/tools/bin/../lib/gcc/arm-none-eabi/8.2.1/../../../../arm-none-eabi/lib/thumb/v7e-m+fp/hard\libcr_c.a(__init_alloc.o)
_initio                                           c:/nxp/mcuxpressoide_11.0.0_2516/ide/plugins/com.nxp.mcuxpresso.tools.win32_11.0.0.201905131304/tools/bin/../lib/gcc/arm-none-eabi/8.2.1/../../../../arm-none-eabi/lib/thumb/v7e-m+fp/hard\libcr_c.a(initio.o)
                                                  c:/nxp/mcuxpressoide_11.0.0_2516/ide/plugins/com.nxp.mcuxpresso.tools.win32_11.0.0.201905131304/tools/bin/../lib/gcc/arm-none-eabi/8.2.1/../../../../arm-none-eabi/lib/thumb/v7e-m+fp/hard\libcr_semihost_nf.a(_cr__main.o)
_printf                                           c:/nxp/mcuxpressoide_11.0.0_2516/ide/plugins/com.nxp.mcuxpresso.tools.win32_11.0.0.201905131304/tools/bin/../lib/gcc/arm-none-eabi/8.2.1/../../../../arm-none-eabi/lib/thumb/v7e-m+fp/hard\libcr_c.a(printf.o)
                                                  ./source/MK66FN2M0xxx18_Accelerometer2.o
_printf_char                                      c:/nxp/mcuxpressoide_11.0.0_2516/ide/plugins/com.nxp.mcuxpresso.tools.win32_11.0.0.201905131304/tools/bin/../lib/gcc/arm-none-eabi/8.2.1/../../../../arm-none-eabi/lib/thumb/v7e-m+fp/hard\libcr_c.a(printf.o)
_pvHeapLimit                                      c:/nxp/mcuxpressoide_11.0.0_2516/ide/plugins/com.nxp.mcuxpresso.tools.win32_11.0.0.201905131304/tools/bin/../lib/gcc/arm-none-eabi/8.2.1/../../../../arm-none-eabi/lib/thumb/v7e-m+fp/hard\libcr_c.a(_cr_check_heap.o)
_pvHeapStart                                      c:/nxp/mcuxpressoide_11.0.0_2516/ide/plugins/com.nxp.mcuxpresso.tools.win32_11.0.0.201905131304/tools/bin/../lib/gcc/arm-none-eabi/8.2.1/../../../../arm-none-eabi/lib/thumb/v7e-m+fp/hard\libcr_c.a(_cr_sbrk.o)
_sbrk                                             c:/nxp/mcuxpressoide_11.0.0_2516/ide/plugins/com.nxp.mcuxpresso.tools.win32_11.0.0.201905131304/tools/bin/../lib/gcc/arm-none-eabi/8.2.1/../../../../arm-none-eabi/lib/thumb/v7e-m+fp/hard\libcr_c.a(_cr_sbrk.o)
                                                  c:/nxp/mcuxpressoide_11.0.0_2516/ide/plugins/com.nxp.mcuxpresso.tools.win32_11.0.0.201905131304/tools/bin/../lib/gcc/arm-none-eabi/8.2.1/../../../../arm-none-eabi/lib/thumb/v7e-m+fp/hard\libcr_c.a(alloc.o)
_snprintf                                         c:/nxp/mcuxpressoide_11.0.0_2516/ide/plugins/com.nxp.mcuxpresso.tools.win32_11.0.0.201905131304/tools/bin/../lib/gcc/arm-none-eabi/8.2.1/../../../../arm-none-eabi/lib/thumb/v7e-m+fp/hard\libcr_c.a(printf.o)
_sprintf                                          c:/nxp/mcuxpressoide_11.0.0_2516/ide/plugins/com.nxp.mcuxpresso.tools.win32_11.0.0.201905131304/tools/bin/../lib/gcc/arm-none-eabi/8.2.1/../../../../arm-none-eabi/lib/thumb/v7e-m+fp/hard\libcr_c.a(printf.o)
_terminateio                                      c:/nxp/mcuxpressoide_11.0.0_2516/ide/plugins/com.nxp.mcuxpresso.tools.win32_11.0.0.201905131304/tools/bin/../lib/gcc/arm-none-eabi/8.2.1/../../../../arm-none-eabi/lib/thumb/v7e-m+fp/hard\libcr_c.a(initio.o)
_vStackTop                                        ./startup/startup_mk66f18.o
_vfprintf                                         c:/nxp/mcuxpressoide_11.0.0_2516/ide/plugins/com.nxp.mcuxpresso.tools.win32_11.0.0.201905131304/tools/bin/../lib/gcc/arm-none-eabi/8.2.1/../../../../arm-none-eabi/lib/thumb/v7e-m+fp/hard\libcr_c.a(printf.o)
_vprintf                                          c:/nxp/mcuxpressoide_11.0.0_2516/ide/plugins/com.nxp.mcuxpresso.tools.win32_11.0.0.201905131304/tools/bin/../lib/gcc/arm-none-eabi/8.2.1/../../../../arm-none-eabi/lib/thumb/v7e-m+fp/hard\libcr_c.a(printf.o)
_vsnprintf                                        c:/nxp/mcuxpressoide_11.0.0_2516/ide/plugins/com.nxp.mcuxpresso.tools.win32_11.0.0.201905131304/tools/bin/../lib/gcc/arm-none-eabi/8.2.1/../../../../arm-none-eabi/lib/thumb/v7e-m+fp/hard\libcr_c.a(printf.o)
_vsprintf                                         c:/nxp/mcuxpressoide_11.0.0_2516/ide/plugins/com.nxp.mcuxpresso.tools.win32_11.0.0.201905131304/tools/bin/../lib/gcc/arm-none-eabi/8.2.1/../../../../arm-none-eabi/lib/thumb/v7e-m+fp/hard\libcr_c.a(printf.o)
bss_init                                          ./startup/startup_mk66f18.o
calloc                                            c:/nxp/mcuxpressoide_11.0.0_2516/ide/plugins/com.nxp.mcuxpresso.tools.win32_11.0.0.201905131304/tools/bin/../lib/gcc/arm-none-eabi/8.2.1/../../../../arm-none-eabi/lib/thumb/v7e-m+fp/hard\libcr_c.a(alloc.o)
data_init                                         ./startup/startup_mk66f18.o
errno                                             c:/nxp/mcuxpressoide_11.0.0_2516/ide/plugins/com.nxp.mcuxpresso.tools.win32_11.0.0.201905131304/tools/bin/../lib/gcc/arm-none-eabi/8.2.1/../../../../arm-none-eabi/lib/thumb/v7e-m+fp/hard\libcr_c.a(errno.o)
                                                  c:/nxp/mcuxpressoide_11.0.0_2516/ide/plugins/com.nxp.mcuxpresso.tools.win32_11.0.0.201905131304/tools/bin/../lib/gcc/arm-none-eabi/8.2.1/../../../../arm-none-eabi/lib/thumb/v7e-m+fp/hard\libcr_c.a(_cr_sbrk.o)
                                                  c:/nxp/mcuxpressoide_11.0.0_2516/ide/plugins/com.nxp.mcuxpresso.tools.win32_11.0.0.201905131304/tools/bin/../lib/gcc/arm-none-eabi/8.2.1/../../../../arm-none-eabi/lib/thumb/v7e-m+fp/hard\libcr_c.a(ftell.o)
fclose                                            c:/nxp/mcuxpressoide_11.0.0_2516/ide/plugins/com.nxp.mcuxpresso.tools.win32_11.0.0.201905131304/tools/bin/../lib/gcc/arm-none-eabi/8.2.1/../../../../arm-none-eabi/lib/thumb/v7e-m+fp/hard\libcr_c.a(fclose.o)
                                                  c:/nxp/mcuxpressoide_11.0.0_2516/ide/plugins/com.nxp.mcuxpresso.tools.win32_11.0.0.201905131304/tools/bin/../lib/gcc/arm-none-eabi/8.2.1/../../../../arm-none-eabi/lib/thumb/v7e-m+fp/hard\libcr_c.a(_fdopen.o)
                                                  c:/nxp/mcuxpressoide_11.0.0_2516/ide/plugins/com.nxp.mcuxpresso.tools.win32_11.0.0.201905131304/tools/bin/../lib/gcc/arm-none-eabi/8.2.1/../../../../arm-none-eabi/lib/thumb/v7e-m+fp/hard\libcr_c.a(initio.o)
fflush                                            c:/nxp/mcuxpressoide_11.0.0_2516/ide/plugins/com.nxp.mcuxpresso.tools.win32_11.0.0.201905131304/tools/bin/../lib/gcc/arm-none-eabi/8.2.1/../../../../arm-none-eabi/lib/thumb/v7e-m+fp/hard\libcr_c.a(fflush.o)
                                                  c:/nxp/mcuxpressoide_11.0.0_2516/ide/plugins/com.nxp.mcuxpresso.tools.win32_11.0.0.201905131304/tools/bin/../lib/gcc/arm-none-eabi/8.2.1/../../../../arm-none-eabi/lib/thumb/v7e-m+fp/hard\libcr_c.a(fclose.o)
finishInitialization                              ./source/accel.o
                                                  ./source/MK66FN2M0xxx18_Accelerometer2.o
floor                                             c:/nxp/mcuxpressoide_11.0.0_2516/ide/plugins/com.nxp.mcuxpresso.tools.win32_11.0.0.201905131304/tools/bin/../lib/gcc/arm-none-eabi/8.2.1/../../../../arm-none-eabi/lib/thumb/v7e-m+fp/hard\libcr_c.a(floor.o)
                                                  ./source/MK66FN2M0xxx18_Accelerometer2.o
fputs                                             c:/nxp/mcuxpressoide_11.0.0_2516/ide/plugins/com.nxp.mcuxpresso.tools.win32_11.0.0.201905131304/tools/bin/../lib/gcc/arm-none-eabi/8.2.1/../../../../arm-none-eabi/lib/thumb/v7e-m+fp/hard\libcr_c.a(fputs.o)
                                                  c:/nxp/mcuxpressoide_11.0.0_2516/ide/plugins/com.nxp.mcuxpresso.tools.win32_11.0.0.201905131304/tools/bin/../lib/gcc/arm-none-eabi/8.2.1/../../../../arm-none-eabi/lib/thumb/v7e-m+fp/hard\libcr_semihost_nf.a(_cr_assert.o)
free                                              c:/nxp/mcuxpressoide_11.0.0_2516/ide/plugins/com.nxp.mcuxpresso.tools.win32_11.0.0.201905131304/tools/bin/../lib/gcc/arm-none-eabi/8.2.1/../../../../arm-none-eabi/lib/thumb/v7e-m+fp/hard\libcr_c.a(alloc.o)
                                                  c:/nxp/mcuxpressoide_11.0.0_2516/ide/plugins/com.nxp.mcuxpresso.tools.win32_11.0.0.201905131304/tools/bin/../lib/gcc/arm-none-eabi/8.2.1/../../../../arm-none-eabi/lib/thumb/v7e-m+fp/hard\libcr_c.a(fclose.o)
                                                  c:/nxp/mcuxpressoide_11.0.0_2516/ide/plugins/com.nxp.mcuxpresso.tools.win32_11.0.0.201905131304/tools/bin/../lib/gcc/arm-none-eabi/8.2.1/../../../../arm-none-eabi/lib/thumb/v7e-m+fp/hard\libcr_c.a(printf.o)
                                                  ./drivers/fsl_common.o
fseek                                             c:/nxp/mcuxpressoide_11.0.0_2516/ide/plugins/com.nxp.mcuxpresso.tools.win32_11.0.0.201905131304/tools/bin/../lib/gcc/arm-none-eabi/8.2.1/../../../../arm-none-eabi/lib/thumb/v7e-m+fp/hard\libcr_c.a(fseek.o)
                                                  c:/nxp/mcuxpressoide_11.0.0_2516/ide/plugins/com.nxp.mcuxpresso.tools.win32_11.0.0.201905131304/tools/bin/../lib/gcc/arm-none-eabi/8.2.1/../../../../arm-none-eabi/lib/thumb/v7e-m+fp/hard\libcr_c.a(_do_fflush.o)
                                                  c:/nxp/mcuxpressoide_11.0.0_2516/ide/plugins/com.nxp.mcuxpresso.tools.win32_11.0.0.201905131304/tools/bin/../lib/gcc/arm-none-eabi/8.2.1/../../../../arm-none-eabi/lib/thumb/v7e-m+fp/hard\libcr_c.a(_fdopen.o)
                                                  c:/nxp/mcuxpressoide_11.0.0_2516/ide/plugins/com.nxp.mcuxpresso.tools.win32_11.0.0.201905131304/tools/bin/../lib/gcc/arm-none-eabi/8.2.1/../../../../arm-none-eabi/lib/thumb/v7e-m+fp/hard\libcr_c.a(_deferredlazyseek.o)
ftell                                             c:/nxp/mcuxpressoide_11.0.0_2516/ide/plugins/com.nxp.mcuxpresso.tools.win32_11.0.0.201905131304/tools/bin/../lib/gcc/arm-none-eabi/8.2.1/../../../../arm-none-eabi/lib/thumb/v7e-m+fp/hard\libcr_c.a(ftell.o)
                                                  c:/nxp/mcuxpressoide_11.0.0_2516/ide/plugins/com.nxp.mcuxpresso.tools.win32_11.0.0.201905131304/tools/bin/../lib/gcc/arm-none-eabi/8.2.1/../../../../arm-none-eabi/lib/thumb/v7e-m+fp/hard\libcr_c.a(fseek.o)
g_pfnVectors                                      ./startup/startup_mk66f18.o
g_serialHandle                                    ./utilities/fsl_debug_console.o
g_xtal0Freq                                       ./drivers/fsl_clock.o
                                                  ./board/boards/clock_config.o
g_xtal32Freq                                      ./drivers/fsl_clock.o
                                                  ./board/boards/clock_config.o
initializeAccel                                   ./source/MK66FN2M0xxx18_Accelerometer2.o
main                                              ./source/MK66FN2M0xxx18_Accelerometer2.o
                                                  c:/nxp/mcuxpressoide_11.0.0_2516/ide/plugins/com.nxp.mcuxpresso.tools.win32_11.0.0.201905131304/tools/bin/../lib/gcc/arm-none-eabi/8.2.1/../../../../arm-none-eabi/lib/thumb/v7e-m+fp/hard\libcr_semihost_nf.a(_cr__main.o)
malloc                                            c:/nxp/mcuxpressoide_11.0.0_2516/ide/plugins/com.nxp.mcuxpresso.tools.win32_11.0.0.201905131304/tools/bin/../lib/gcc/arm-none-eabi/8.2.1/../../../../arm-none-eabi/lib/thumb/v7e-m+fp/hard\libcr_c.a(alloc.o)
                                                  c:/nxp/mcuxpressoide_11.0.0_2516/ide/plugins/com.nxp.mcuxpresso.tools.win32_11.0.0.201905131304/tools/bin/../lib/gcc/arm-none-eabi/8.2.1/../../../../arm-none-eabi/lib/thumb/v7e-m+fp/hard\libcr_c.a(printf.o)
                                                  ./drivers/fsl_common.o
mcgConfig_BOARD_BootClockHSRUN                    ./board/boards/clock_config.o
mcgConfig_BOARD_BootClockVLPR                     ./board/boards/clock_config.o
memcpy                                            c:/nxp/mcuxpressoide_11.0.0_2516/ide/plugins/com.nxp.mcuxpresso.tools.win32_11.0.0.201905131304/tools/bin/../lib/gcc/arm-none-eabi/8.2.1/../../../../arm-none-eabi/lib/thumb/v7e-m+fp/hard\libcr_c.a(memcpy.o)
                                                  c:/nxp/mcuxpressoide_11.0.0_2516/ide/plugins/com.nxp.mcuxpresso.tools.win32_11.0.0.201905131304/tools/bin/../lib/gcc/arm-none-eabi/8.2.1/../../../../arm-none-eabi/lib/thumb/v7e-m+fp/hard\libcr_c.a(alloc.o)
memset                                            c:/nxp/mcuxpressoide_11.0.0_2516/ide/plugins/com.nxp.mcuxpresso.tools.win32_11.0.0.201905131304/tools/bin/../lib/gcc/arm-none-eabi/8.2.1/../../../../arm-none-eabi/lib/thumb/v7e-m+fp/hard\libcr_c.a(memset.o)
                                                  c:/nxp/mcuxpressoide_11.0.0_2516/ide/plugins/com.nxp.mcuxpresso.tools.win32_11.0.0.201905131304/tools/bin/../lib/gcc/arm-none-eabi/8.2.1/../../../../arm-none-eabi/lib/thumb/v7e-m+fp/hard\libcr_c.a(fclose.o)
                                                  c:/nxp/mcuxpressoide_11.0.0_2516/ide/plugins/com.nxp.mcuxpresso.tools.win32_11.0.0.201905131304/tools/bin/../lib/gcc/arm-none-eabi/8.2.1/../../../../arm-none-eabi/lib/thumb/v7e-m+fp/hard\libcr_c.a(printf.o)
                                                  c:/nxp/mcuxpressoide_11.0.0_2516/ide/plugins/com.nxp.mcuxpresso.tools.win32_11.0.0.201905131304/tools/bin/../lib/gcc/arm-none-eabi/8.2.1/../../../../arm-none-eabi/lib/thumb/v7e-m+fp/hard\libcr_c.a(alloc.o)
                                                  ./component/serial_manager/serial_manager.o
                                                  ./drivers/fsl_uart.o
                                                  ./drivers/fsl_rtc.o
                                                  ./drivers/fsl_lpuart.o
                                                  ./drivers/fsl_i2c.o
                                                  ./utilities/fsl_debug_console.o
orientationChange                                 ./source/MK66FN2M0xxx18_Accelerometer2.o
oscConfig_BOARD_BootClockHSRUN                    ./board/boards/clock_config.o
oscConfig_BOARD_BootClockVLPR                     ./board/boards/clock_config.o
realloc                                           c:/nxp/mcuxpressoide_11.0.0_2516/ide/plugins/com.nxp.mcuxpresso.tools.win32_11.0.0.201905131304/tools/bin/../lib/gcc/arm-none-eabi/8.2.1/../../../../arm-none-eabi/lib/thumb/v7e-m+fp/hard\libcr_c.a(alloc.o)
remove                                            c:/nxp/mcuxpressoide_11.0.0_2516/ide/plugins/com.nxp.mcuxpresso.tools.win32_11.0.0.201905131304/tools/bin/../lib/gcc/arm-none-eabi/8.2.1/../../../../arm-none-eabi/lib/thumb/v7e-m+fp/hard\libcr_c.a(remove.o)
                                                  c:/nxp/mcuxpressoide_11.0.0_2516/ide/plugins/com.nxp.mcuxpresso.tools.win32_11.0.0.201905131304/tools/bin/../lib/gcc/arm-none-eabi/8.2.1/../../../../arm-none-eabi/lib/thumb/v7e-m+fp/hard\libcr_c.a(fclose.o)
rename                                            c:/nxp/mcuxpressoide_11.0.0_2516/ide/plugins/com.nxp.mcuxpresso.tools.win32_11.0.0.201905131304/tools/bin/../lib/gcc/arm-none-eabi/8.2.1/../../../../arm-none-eabi/lib/thumb/v7e-m+fp/hard\libcr_c.a(remove.o)
setupOrientationDetection                         ./source/MK66FN2M0xxx18_Accelerometer2.o
setvbuf                                           c:/nxp/mcuxpressoide_11.0.0_2516/ide/plugins/com.nxp.mcuxpresso.tools.win32_11.0.0.201905131304/tools/bin/../lib/gcc/arm-none-eabi/8.2.1/../../../../arm-none-eabi/lib/thumb/v7e-m+fp/hard\libcr_c.a(setvbuf.o)
                                                  c:/nxp/mcuxpressoide_11.0.0_2516/ide/plugins/com.nxp.mcuxpresso.tools.win32_11.0.0.201905131304/tools/bin/../lib/gcc/arm-none-eabi/8.2.1/../../../../arm-none-eabi/lib/thumb/v7e-m+fp/hard\libcr_c.a(initio.o)
simConfig_BOARD_BootClockHSRUN                    ./board/boards/clock_config.o
simConfig_BOARD_BootClockVLPR                     ./board/boards/clock_config.o
startInitialization                               ./source/accel.o
                                                  ./source/MK66FN2M0xxx18_Accelerometer2.o
strlen                                            c:/nxp/mcuxpressoide_11.0.0_2516/ide/plugins/com.nxp.mcuxpresso.tools.win32_11.0.0.201905131304/tools/bin/../lib/gcc/arm-none-eabi/8.2.1/../../../../arm-none-eabi/lib/thumb/v7e-m+fp/hard\libcr_c.a(strlen.o)
                                                  c:/nxp/mcuxpressoide_11.0.0_2516/ide/plugins/com.nxp.mcuxpresso.tools.win32_11.0.0.201905131304/tools/bin/../lib/gcc/arm-none-eabi/8.2.1/../../../../arm-none-eabi/lib/thumb/v7e-m+fp/hard\libcr_c.a(remove.o)
                                                  c:/nxp/mcuxpressoide_11.0.0_2516/ide/plugins/com.nxp.mcuxpresso.tools.win32_11.0.0.201905131304/tools/bin/../lib/gcc/arm-none-eabi/8.2.1/../../../../arm-none-eabi/lib/thumb/v7e-m+fp/hard\libcr_c.a(printf.o)
                                                  ./utilities/fsl_str.o
